
/home/travis/build/hackndev/zinc/build/app_mbed_lcd.elf:     file format elf32-littlearm


Disassembly of section .data:

10000000 <_data>:
	...

Disassembly of section .text:

00000000 <ISRVectors>:
       0:	10002000 	andne	r2, r0, r0
       4:	000000cd 	andeq	r0, r0, sp, asr #1
       8:	00001b75 	andeq	r1, r0, r5, ror fp
       c:	00001b75 	andeq	r1, r0, r5, ror fp
      10:	00001b75 	andeq	r1, r0, r5, ror fp
      14:	00001b75 	andeq	r1, r0, r5, ror fp
      18:	00001b75 	andeq	r1, r0, r5, ror fp
      1c:	efffa849 	svc	0x00ffa849
	...
      2c:	00001c15 	andeq	r1, r0, r5, lsl ip
	...
      38:	00001bed 	andeq	r1, r0, sp, ror #23
      3c:	00001bc5 	andeq	r1, r0, r5, asr #23

00000040 <NVICVectors>:
      40:	00001b75 	andeq	r1, r0, r5, ror fp
      44:	00001b75 	andeq	r1, r0, r5, ror fp
      48:	00001b75 	andeq	r1, r0, r5, ror fp
      4c:	00001b75 	andeq	r1, r0, r5, ror fp
      50:	00001b75 	andeq	r1, r0, r5, ror fp
      54:	00001b75 	andeq	r1, r0, r5, ror fp
      58:	00001b75 	andeq	r1, r0, r5, ror fp
      5c:	00001b75 	andeq	r1, r0, r5, ror fp
      60:	00001b75 	andeq	r1, r0, r5, ror fp
      64:	00001b75 	andeq	r1, r0, r5, ror fp
      68:	00001b75 	andeq	r1, r0, r5, ror fp
      6c:	00001b75 	andeq	r1, r0, r5, ror fp
      70:	00001b75 	andeq	r1, r0, r5, ror fp
      74:	00001b75 	andeq	r1, r0, r5, ror fp
      78:	00001b75 	andeq	r1, r0, r5, ror fp
      7c:	00001b75 	andeq	r1, r0, r5, ror fp
      80:	00001b75 	andeq	r1, r0, r5, ror fp
      84:	00001b75 	andeq	r1, r0, r5, ror fp
      88:	00001b75 	andeq	r1, r0, r5, ror fp
      8c:	00001b75 	andeq	r1, r0, r5, ror fp
      90:	00001b75 	andeq	r1, r0, r5, ror fp
      94:	00001b75 	andeq	r1, r0, r5, ror fp
      98:	00001b75 	andeq	r1, r0, r5, ror fp
      9c:	00001b75 	andeq	r1, r0, r5, ror fp
      a0:	00001b75 	andeq	r1, r0, r5, ror fp
      a4:	00001b75 	andeq	r1, r0, r5, ror fp
      a8:	00001b75 	andeq	r1, r0, r5, ror fp
      ac:	00001b75 	andeq	r1, r0, r5, ror fp
      b0:	00001b75 	andeq	r1, r0, r5, ror fp
      b4:	00001b75 	andeq	r1, r0, r5, ror fp
      b8:	00001b75 	andeq	r1, r0, r5, ror fp
      bc:	00001b75 	andeq	r1, r0, r5, ror fp
      c0:	00001b75 	andeq	r1, r0, r5, ror fp
      c4:	00001b75 	andeq	r1, r0, r5, ror fp
      c8:	00001b75 	andeq	r1, r0, r5, ror fp

000000cc <main>:
      cc:	e92d 4ff0 	stmdb	sp!, {r4, r5, r6, r7, r8, r9, sl, fp, lr}
      d0:	f5ad 6d9e 	sub.w	sp, sp, #1264	; 0x4f0
      d4:	b081      	sub	sp, #4
      d6:	f240 0038 	movw	r0, #56	; 0x38
      da:	f240 013c 	movw	r1, #60	; 0x3c
      de:	f2c1 0000 	movt	r0, #4096	; 0x1000
      e2:	f2c1 0100 	movt	r1, #4096	; 0x1000
      e6:	6001      	str	r1, [r0, #0]
      e8:	f240 0000 	movw	r0, #0
      ec:	f240 0134 	movw	r1, #52	; 0x34
      f0:	f2c1 0000 	movt	r0, #4096	; 0x1000
      f4:	f2c1 0100 	movt	r1, #4096	; 0x1000
      f8:	4288      	cmp	r0, r1
      fa:	d209      	bcs.n	110 <main+0x44>
      fc:	f642 02a4 	movw	r2, #10404	; 0x28a4
     100:	f2c0 0200 	movt	r2, #0
     104:	f852 3b04 	ldr.w	r3, [r2], #4
     108:	f840 3b04 	str.w	r3, [r0], #4
     10c:	4288      	cmp	r0, r1
     10e:	d3f9      	bcc.n	104 <main+0x38>
     110:	f240 0034 	movw	r0, #52	; 0x34
     114:	f240 0134 	movw	r1, #52	; 0x34
     118:	f2c1 0000 	movt	r0, #4096	; 0x1000
     11c:	f2c1 0100 	movt	r1, #4096	; 0x1000
     120:	4288      	cmp	r0, r1
     122:	d204      	bcs.n	12e <main+0x62>
     124:	2200      	movs	r2, #0
     126:	f840 2b04 	str.w	r2, [r0], #4
     12a:	4288      	cmp	r0, r1
     12c:	d3fb      	bcc.n	126 <main+0x5a>
     12e:	f24c 10a0 	movw	r0, #49568	; 0xc1a0
     132:	2120      	movs	r1, #32
     134:	f2c4 000f 	movt	r0, #16399	; 0x400f
     138:	6001      	str	r1, [r0, #0]
     13a:	6801      	ldr	r1, [r0, #0]
     13c:	f011 0f40 	tst.w	r1, #64	; 0x40
     140:	d0fb      	beq.n	13a <main+0x6e>
     142:	f24c 0000 	movw	r0, #49152	; 0xc000
     146:	f44f 4180 	mov.w	r1, #16384	; 0x4000
     14a:	2231      	movs	r2, #49	; 0x31
     14c:	23aa      	movs	r3, #170	; 0xaa
     14e:	2755      	movs	r7, #85	; 0x55
     150:	f2c4 000f 	movt	r0, #16399	; 0x400f
     154:	f2c0 0202 	movt	r2, #2
     158:	6001      	str	r1, [r0, #0]
     15a:	f24c 100c 	movw	r0, #49420	; 0xc10c
     15e:	2101      	movs	r1, #1
     160:	f2c4 000f 	movt	r0, #16399	; 0x400f
     164:	6001      	str	r1, [r0, #0]
     166:	f24c 0084 	movw	r0, #49284	; 0xc084
     16a:	f2c4 000f 	movt	r0, #16399	; 0x400f
     16e:	6002      	str	r2, [r0, #0]
     170:	f24c 008c 	movw	r0, #49292	; 0xc08c
     174:	f24c 0280 	movw	r2, #49280	; 0xc080
     178:	f2c4 000f 	movt	r0, #16399	; 0x400f
     17c:	f2c4 020f 	movt	r2, #16399	; 0x400f
     180:	6003      	str	r3, [r0, #0]
     182:	6007      	str	r7, [r0, #0]
     184:	6011      	str	r1, [r2, #0]
     186:	f24c 0188 	movw	r1, #49288	; 0xc088
     18a:	6003      	str	r3, [r0, #0]
     18c:	6007      	str	r7, [r0, #0]
     18e:	f2c4 010f 	movt	r1, #16399	; 0x400f
     192:	680b      	ldr	r3, [r1, #0]
     194:	f013 7f80 	tst.w	r3, #16777216	; 0x1000000
     198:	d0fb      	beq.n	192 <main+0xc6>
     19a:	f24c 1304 	movw	r3, #49412	; 0xc104
     19e:	2703      	movs	r7, #3
     1a0:	f2c4 030f 	movt	r3, #16399	; 0x400f
     1a4:	601f      	str	r7, [r3, #0]
     1a6:	680b      	ldr	r3, [r1, #0]
     1a8:	f013 6f80 	tst.w	r3, #67108864	; 0x4000000
     1ac:	d0fb      	beq.n	1a6 <main+0xda>
     1ae:	2303      	movs	r3, #3
     1b0:	6013      	str	r3, [r2, #0]
     1b2:	22aa      	movs	r2, #170	; 0xaa
     1b4:	6002      	str	r2, [r0, #0]
     1b6:	2255      	movs	r2, #85	; 0x55
     1b8:	6002      	str	r2, [r0, #0]
     1ba:	6808      	ldr	r0, [r1, #0]
     1bc:	f010 7f00 	tst.w	r0, #33554432	; 0x2000000
     1c0:	d0fb      	beq.n	1ba <main+0xee>
     1c2:	f24c 00c4 	movw	r0, #49348	; 0xc0c4
     1c6:	2300      	movs	r3, #0
     1c8:	2602      	movs	r6, #2
     1ca:	2718      	movs	r7, #24
     1cc:	f240 0500 	movw	r5, #0
     1d0:	f641 3400 	movw	r4, #6912	; 0x1b00
     1d4:	f2c4 000f 	movt	r0, #16399	; 0x400f
     1d8:	f2c4 0503 	movt	r5, #16387	; 0x4003
     1dc:	f6c4 24b7 	movt	r4, #19127	; 0x4ab7
     1e0:	6801      	ldr	r1, [r0, #0]
     1e2:	f041 0104 	orr.w	r1, r1, #4
     1e6:	6001      	str	r1, [r0, #0]
     1e8:	f24c 11a8 	movw	r1, #49576	; 0xc1a8
     1ec:	f2c4 010f 	movt	r1, #16399	; 0x400f
     1f0:	680a      	ldr	r2, [r1, #0]
     1f2:	f022 020c 	bic.w	r2, r2, #12
     1f6:	600a      	str	r2, [r1, #0]
     1f8:	f248 0200 	movw	r2, #32768	; 0x8000
     1fc:	f2c4 0200 	movt	r2, #16384	; 0x4000
     200:	6393      	str	r3, [r2, #56]	; 0x38
     202:	6056      	str	r6, [r2, #4]
     204:	60d7      	str	r7, [r2, #12]
     206:	2701      	movs	r7, #1
     208:	6057      	str	r7, [r2, #4]
     20a:	9290      	str	r2, [sp, #576]	; 0x240
     20c:	6802      	ldr	r2, [r0, #0]
     20e:	f442 6280 	orr.w	r2, r2, #1024	; 0x400
     212:	6002      	str	r2, [r0, #0]
     214:	6808      	ldr	r0, [r1, #0]
     216:	f367 208b 	bfi	r0, r7, #10, #2
     21a:	f24e 1700 	movw	r7, #57600	; 0xe100
     21e:	6008      	str	r0, [r1, #0]
     220:	21c7      	movs	r1, #199	; 0xc7
     222:	f2c0 57f5 	movt	r7, #1525	; 0x5f5
     226:	6868      	ldr	r0, [r5, #4]
     228:	f000 000d 	and.w	r0, r0, #13
     22c:	6068      	str	r0, [r5, #4]
     22e:	6828      	ldr	r0, [r5, #0]
     230:	f361 0007 	bfi	r0, r1, #0, #8
     234:	6028      	str	r0, [r5, #0]
     236:	606b      	str	r3, [r5, #4]
     238:	6868      	ldr	r0, [r5, #4]
     23a:	f040 0002 	orr.w	r0, r0, #2
     23e:	6068      	str	r0, [r5, #4]
     240:	6868      	ldr	r0, [r5, #4]
     242:	f000 000d 	and.w	r0, r0, #13
     246:	6068      	str	r0, [r5, #4]
     248:	e000      	b.n	24c <main+0x180>
     24a:	3602      	adds	r6, #2
     24c:	fbb7 f0f6 	udiv	r0, r7, r6
     250:	f001 fda0 	bl	1d94 <__aeabi_ui2f>
     254:	4621      	mov	r1, r4
     256:	f001 fea9 	bl	1fac <__aeabi_fdiv>
     25a:	f04f 517c 	mov.w	r1, #1056964608	; 0x3f000000
     25e:	f001 fce9 	bl	1c34 <__addsf3>
     262:	f001 ff3f 	bl	20e4 <__aeabi_f2uiz>
     266:	28ff      	cmp	r0, #255	; 0xff
     268:	d8ef      	bhi.n	24a <main+0x17e>
     26a:	f06f 01ff 	mvn.w	r1, #255	; 0xff
     26e:	612e      	str	r6, [r5, #16]
     270:	f242 1430 	movw	r4, #8496	; 0x2130
     274:	eb01 2000 	add.w	r0, r1, r0, lsl #8
     278:	6829      	ldr	r1, [r5, #0]
     27a:	f2c0 0400 	movt	r4, #0
     27e:	b2c9      	uxtb	r1, r1
     280:	4308      	orrs	r0, r1
     282:	6028      	str	r0, [r5, #0]
     284:	6868      	ldr	r0, [r5, #4]
     286:	f040 0002 	orr.w	r0, r0, #2
     28a:	6068      	str	r0, [r5, #4]
     28c:	f894 0020 	ldrb.w	r0, [r4, #32]
     290:	2800      	cmp	r0, #0
     292:	d15c      	bne.n	34e <main+0x282>
     294:	f894 0021 	ldrb.w	r0, [r4, #33]	; 0x21
     298:	f894 1022 	ldrb.w	r1, [r4, #34]	; 0x22
     29c:	f894 2023 	ldrb.w	r2, [r4, #35]	; 0x23
     2a0:	b2c0      	uxtb	r0, r0
     2a2:	2803      	cmp	r0, #3
     2a4:	d90a      	bls.n	2bc <main+0x1f0>
     2a6:	f001 00fe 	and.w	r0, r1, #254	; 0xfe
     2aa:	281c      	cmp	r0, #28
     2ac:	f040 868b 	bne.w	fc6 <main+0xefa>
     2b0:	f24c 0324 	movw	r3, #49188	; 0xc024
     2b4:	3910      	subs	r1, #16
     2b6:	f2c4 0302 	movt	r3, #16386	; 0x4002
     2ba:	e03c      	b.n	336 <main+0x26a>
     2bc:	e8df f000 	tbb	[pc, r0]
     2c0:	1b120a02 	blne	482ad0 <_data_load+0x48022c>
     2c4:	b2c8      	uxtb	r0, r1
     2c6:	2810      	cmp	r0, #16
     2c8:	d221      	bcs.n	30e <main+0x242>
     2ca:	f24c 0300 	movw	r3, #49152	; 0xc000
     2ce:	f2c4 0302 	movt	r3, #16386	; 0x4002
     2d2:	e030      	b.n	336 <main+0x26a>
     2d4:	b2c8      	uxtb	r0, r1
     2d6:	2810      	cmp	r0, #16
     2d8:	d223      	bcs.n	322 <main+0x256>
     2da:	f24c 0308 	movw	r3, #49160	; 0xc008
     2de:	f2c4 0302 	movt	r3, #16386	; 0x4002
     2e2:	e028      	b.n	336 <main+0x26a>
     2e4:	b2c8      	uxtb	r0, r1
     2e6:	280e      	cmp	r0, #14
     2e8:	f080 866e 	bcs.w	fc8 <main+0xefc>
     2ec:	f24c 0310 	movw	r3, #49168	; 0xc010
     2f0:	f2c4 0302 	movt	r3, #16386	; 0x4002
     2f4:	e01f      	b.n	336 <main+0x26a>
     2f6:	f1a1 0019 	sub.w	r0, r1, #25
     2fa:	b2c0      	uxtb	r0, r0
     2fc:	2802      	cmp	r0, #2
     2fe:	f080 8666 	bcs.w	fce <main+0xf02>
     302:	f24c 031c 	movw	r3, #49180	; 0xc01c
     306:	3910      	subs	r1, #16
     308:	f2c4 0302 	movt	r3, #16386	; 0x4002
     30c:	e013      	b.n	336 <main+0x26a>
     30e:	3910      	subs	r1, #16
     310:	b2c8      	uxtb	r0, r1
     312:	280f      	cmp	r0, #15
     314:	f080 865e 	bcs.w	fd4 <main+0xf08>
     318:	f24c 0304 	movw	r3, #49156	; 0xc004
     31c:	f2c4 0302 	movt	r3, #16386	; 0x4002
     320:	e009      	b.n	336 <main+0x26a>
     322:	f001 00f0 	and.w	r0, r1, #240	; 0xf0
     326:	2810      	cmp	r0, #16
     328:	f040 864e 	bne.w	fc8 <main+0xefc>
     32c:	f24c 030c 	movw	r3, #49164	; 0xc00c
     330:	3910      	subs	r1, #16
     332:	f2c4 0302 	movt	r3, #16386	; 0x4002
     336:	0049      	lsls	r1, r1, #1
     338:	b2d0      	uxtb	r0, r2
     33a:	2203      	movs	r2, #3
     33c:	b2c9      	uxtb	r1, r1
     33e:	4088      	lsls	r0, r1
     340:	fa02 f101 	lsl.w	r1, r2, r1
     344:	681a      	ldr	r2, [r3, #0]
     346:	ea22 0101 	bic.w	r1, r2, r1
     34a:	4308      	orrs	r0, r1
     34c:	6018      	str	r0, [r3, #0]
     34e:	f894 0024 	ldrb.w	r0, [r4, #36]	; 0x24
     352:	2800      	cmp	r0, #0
     354:	d15c      	bne.n	410 <main+0x344>
     356:	f894 0025 	ldrb.w	r0, [r4, #37]	; 0x25
     35a:	f894 1026 	ldrb.w	r1, [r4, #38]	; 0x26
     35e:	f894 2027 	ldrb.w	r2, [r4, #39]	; 0x27
     362:	b2c0      	uxtb	r0, r0
     364:	2803      	cmp	r0, #3
     366:	d90a      	bls.n	37e <main+0x2b2>
     368:	f001 00fe 	and.w	r0, r1, #254	; 0xfe
     36c:	281c      	cmp	r0, #28
     36e:	f040 862a 	bne.w	fc6 <main+0xefa>
     372:	f24c 0324 	movw	r3, #49188	; 0xc024
     376:	3910      	subs	r1, #16
     378:	f2c4 0302 	movt	r3, #16386	; 0x4002
     37c:	e03c      	b.n	3f8 <main+0x32c>
     37e:	e8df f000 	tbb	[pc, r0]
     382:	1b120a02 	blne	482b92 <_data_load+0x4802ee>
     386:	b2c8      	uxtb	r0, r1
     388:	2810      	cmp	r0, #16
     38a:	d221      	bcs.n	3d0 <main+0x304>
     38c:	f24c 0300 	movw	r3, #49152	; 0xc000
     390:	f2c4 0302 	movt	r3, #16386	; 0x4002
     394:	e030      	b.n	3f8 <main+0x32c>
     396:	b2c8      	uxtb	r0, r1
     398:	2810      	cmp	r0, #16
     39a:	d223      	bcs.n	3e4 <main+0x318>
     39c:	f24c 0308 	movw	r3, #49160	; 0xc008
     3a0:	f2c4 0302 	movt	r3, #16386	; 0x4002
     3a4:	e028      	b.n	3f8 <main+0x32c>
     3a6:	b2c8      	uxtb	r0, r1
     3a8:	280e      	cmp	r0, #14
     3aa:	f080 860e 	bcs.w	fca <main+0xefe>
     3ae:	f24c 0310 	movw	r3, #49168	; 0xc010
     3b2:	f2c4 0302 	movt	r3, #16386	; 0x4002
     3b6:	e01f      	b.n	3f8 <main+0x32c>
     3b8:	f1a1 0019 	sub.w	r0, r1, #25
     3bc:	b2c0      	uxtb	r0, r0
     3be:	2802      	cmp	r0, #2
     3c0:	f080 8606 	bcs.w	fd0 <main+0xf04>
     3c4:	f24c 031c 	movw	r3, #49180	; 0xc01c
     3c8:	3910      	subs	r1, #16
     3ca:	f2c4 0302 	movt	r3, #16386	; 0x4002
     3ce:	e013      	b.n	3f8 <main+0x32c>
     3d0:	3910      	subs	r1, #16
     3d2:	b2c8      	uxtb	r0, r1
     3d4:	280f      	cmp	r0, #15
     3d6:	f080 85fe 	bcs.w	fd6 <main+0xf0a>
     3da:	f24c 0304 	movw	r3, #49156	; 0xc004
     3de:	f2c4 0302 	movt	r3, #16386	; 0x4002
     3e2:	e009      	b.n	3f8 <main+0x32c>
     3e4:	f001 00f0 	and.w	r0, r1, #240	; 0xf0
     3e8:	2810      	cmp	r0, #16
     3ea:	f040 85ee 	bne.w	fca <main+0xefe>
     3ee:	f24c 030c 	movw	r3, #49164	; 0xc00c
     3f2:	3910      	subs	r1, #16
     3f4:	f2c4 0302 	movt	r3, #16386	; 0x4002
     3f8:	0049      	lsls	r1, r1, #1
     3fa:	b2d0      	uxtb	r0, r2
     3fc:	2203      	movs	r2, #3
     3fe:	b2c9      	uxtb	r1, r1
     400:	4088      	lsls	r0, r1
     402:	fa02 f101 	lsl.w	r1, r2, r1
     406:	681a      	ldr	r2, [r3, #0]
     408:	ea22 0101 	bic.w	r1, r2, r1
     40c:	4308      	orrs	r0, r1
     40e:	6018      	str	r0, [r3, #0]
     410:	f894 0028 	ldrb.w	r0, [r4, #40]	; 0x28
     414:	2800      	cmp	r0, #0
     416:	d15c      	bne.n	4d2 <main+0x406>
     418:	f894 0029 	ldrb.w	r0, [r4, #41]	; 0x29
     41c:	f894 102a 	ldrb.w	r1, [r4, #42]	; 0x2a
     420:	f894 202b 	ldrb.w	r2, [r4, #43]	; 0x2b
     424:	b2c0      	uxtb	r0, r0
     426:	2803      	cmp	r0, #3
     428:	d90a      	bls.n	440 <main+0x374>
     42a:	f001 00fe 	and.w	r0, r1, #254	; 0xfe
     42e:	281c      	cmp	r0, #28
     430:	f040 85c9 	bne.w	fc6 <main+0xefa>
     434:	f24c 0324 	movw	r3, #49188	; 0xc024
     438:	3910      	subs	r1, #16
     43a:	f2c4 0302 	movt	r3, #16386	; 0x4002
     43e:	e03c      	b.n	4ba <main+0x3ee>
     440:	e8df f000 	tbb	[pc, r0]
     444:	1b120a02 	blne	482c54 <_data_load+0x4803b0>
     448:	b2c8      	uxtb	r0, r1
     44a:	2810      	cmp	r0, #16
     44c:	d221      	bcs.n	492 <main+0x3c6>
     44e:	f24c 0300 	movw	r3, #49152	; 0xc000
     452:	f2c4 0302 	movt	r3, #16386	; 0x4002
     456:	e030      	b.n	4ba <main+0x3ee>
     458:	b2c8      	uxtb	r0, r1
     45a:	2810      	cmp	r0, #16
     45c:	d223      	bcs.n	4a6 <main+0x3da>
     45e:	f24c 0308 	movw	r3, #49160	; 0xc008
     462:	f2c4 0302 	movt	r3, #16386	; 0x4002
     466:	e028      	b.n	4ba <main+0x3ee>
     468:	b2c8      	uxtb	r0, r1
     46a:	280e      	cmp	r0, #14
     46c:	f080 85ae 	bcs.w	fcc <main+0xf00>
     470:	f24c 0310 	movw	r3, #49168	; 0xc010
     474:	f2c4 0302 	movt	r3, #16386	; 0x4002
     478:	e01f      	b.n	4ba <main+0x3ee>
     47a:	f1a1 0019 	sub.w	r0, r1, #25
     47e:	b2c0      	uxtb	r0, r0
     480:	2802      	cmp	r0, #2
     482:	f080 85a6 	bcs.w	fd2 <main+0xf06>
     486:	f24c 031c 	movw	r3, #49180	; 0xc01c
     48a:	3910      	subs	r1, #16
     48c:	f2c4 0302 	movt	r3, #16386	; 0x4002
     490:	e013      	b.n	4ba <main+0x3ee>
     492:	3910      	subs	r1, #16
     494:	b2c8      	uxtb	r0, r1
     496:	280f      	cmp	r0, #15
     498:	f080 859e 	bcs.w	fd8 <main+0xf0c>
     49c:	f24c 0304 	movw	r3, #49156	; 0xc004
     4a0:	f2c4 0302 	movt	r3, #16386	; 0x4002
     4a4:	e009      	b.n	4ba <main+0x3ee>
     4a6:	f001 00f0 	and.w	r0, r1, #240	; 0xf0
     4aa:	2810      	cmp	r0, #16
     4ac:	f040 858e 	bne.w	fcc <main+0xf00>
     4b0:	f24c 030c 	movw	r3, #49164	; 0xc00c
     4b4:	3910      	subs	r1, #16
     4b6:	f2c4 0302 	movt	r3, #16386	; 0x4002
     4ba:	0049      	lsls	r1, r1, #1
     4bc:	b2d0      	uxtb	r0, r2
     4be:	2203      	movs	r2, #3
     4c0:	b2c9      	uxtb	r1, r1
     4c2:	4088      	lsls	r0, r1
     4c4:	fa02 f101 	lsl.w	r1, r2, r1
     4c8:	681a      	ldr	r2, [r3, #0]
     4ca:	ea22 0101 	bic.w	r1, r2, r1
     4ce:	4308      	orrs	r0, r1
     4d0:	6018      	str	r0, [r3, #0]
     4d2:	f894 1037 	ldrb.w	r1, [r4, #55]	; 0x37
     4d6:	a88e      	add	r0, sp, #568	; 0x238
     4d8:	f894 302d 	ldrb.w	r3, [r4, #45]	; 0x2d
     4dc:	958f      	str	r5, [sp, #572]	; 0x23c
     4de:	f894 202c 	ldrb.w	r2, [r4, #44]	; 0x2c
     4e2:	f894 902e 	ldrb.w	r9, [r4, #46]	; 0x2e
     4e6:	f894 a036 	ldrb.w	sl, [r4, #54]	; 0x36
     4ea:	f894 b034 	ldrb.w	fp, [r4, #52]	; 0x34
     4ee:	f894 8033 	ldrb.w	r8, [r4, #51]	; 0x33
     4f2:	f894 5030 	ldrb.w	r5, [r4, #48]	; 0x30
     4f6:	2601      	movs	r6, #1
     4f8:	9092      	str	r0, [sp, #584]	; 0x248
     4fa:	a890      	add	r0, sp, #576	; 0x240
     4fc:	968e      	str	r6, [sp, #568]	; 0x238
     4fe:	9093      	str	r0, [sp, #588]	; 0x24c
     500:	f894 002f 	ldrb.w	r0, [r4, #47]	; 0x2f
     504:	9103      	str	r1, [sp, #12]
     506:	f894 1035 	ldrb.w	r1, [r4, #53]	; 0x35
     50a:	fa06 fc03 	lsl.w	ip, r6, r3
     50e:	2a03      	cmp	r2, #3
     510:	ea6f 0e0c 	mvn.w	lr, ip
     514:	9102      	str	r1, [sp, #8]
     516:	f894 1032 	ldrb.w	r1, [r4, #50]	; 0x32
     51a:	9101      	str	r1, [sp, #4]
     51c:	f894 1031 	ldrb.w	r1, [r4, #49]	; 0x31
     520:	d806      	bhi.n	530 <main+0x464>
     522:	f642 0494 	movw	r4, #10388	; 0x2894
     526:	f2c0 0400 	movt	r4, #0
     52a:	f854 4022 	ldr.w	r4, [r4, r2, lsl #2]
     52e:	e003      	b.n	538 <main+0x46c>
     530:	f24c 0480 	movw	r4, #49280	; 0xc080
     534:	f2c2 0409 	movt	r4, #8201	; 0x2009
     538:	6827      	ldr	r7, [r4, #0]
     53a:	f010 0fff 	tst.w	r0, #255	; 0xff
     53e:	ea4f 6000 	mov.w	r0, r0, lsl #24
     542:	ea07 070e 	and.w	r7, r7, lr
     546:	bf18      	it	ne
     548:	ea47 070c 	orrne.w	r7, r7, ip
     54c:	6027      	str	r7, [r4, #0]
     54e:	fa5f f789 	uxtb.w	r7, r9
     552:	ea40 4007 	orr.w	r0, r0, r7, lsl #16
     556:	ea40 2003 	orr.w	r0, r0, r3, lsl #8
     55a:	4310      	orrs	r0, r2
     55c:	9094      	str	r0, [sp, #592]	; 0x250
     55e:	b2c8      	uxtb	r0, r1
     560:	b2e9      	uxtb	r1, r5
     562:	fa06 f200 	lsl.w	r2, r6, r0
     566:	2903      	cmp	r1, #3
     568:	ea6f 0302 	mvn.w	r3, r2
     56c:	d806      	bhi.n	57c <main+0x4b0>
     56e:	f642 0794 	movw	r7, #10388	; 0x2894
     572:	f2c0 0700 	movt	r7, #0
     576:	f857 7021 	ldr.w	r7, [r7, r1, lsl #2]
     57a:	e003      	b.n	584 <main+0x4b8>
     57c:	f24c 0780 	movw	r7, #49280	; 0xc080
     580:	f2c2 0709 	movt	r7, #8201	; 0x2009
     584:	f10d 0c04 	add.w	ip, sp, #4
     588:	f018 0fff 	tst.w	r8, #255	; 0xff
     58c:	e89c 1050 	ldmia.w	ip, {r4, r6, ip}
     590:	683d      	ldr	r5, [r7, #0]
     592:	ea03 0305 	and.w	r3, r3, r5
     596:	bf18      	it	ne
     598:	4313      	orrne	r3, r2
     59a:	b2e2      	uxtb	r2, r4
     59c:	603b      	str	r3, [r7, #0]
     59e:	ea4f 6308 	mov.w	r3, r8, lsl #24
     5a2:	ea43 4202 	orr.w	r2, r3, r2, lsl #16
     5a6:	ea42 2000 	orr.w	r0, r2, r0, lsl #8
     5aa:	4308      	orrs	r0, r1
     5ac:	2101      	movs	r1, #1
     5ae:	9095      	str	r0, [sp, #596]	; 0x254
     5b0:	b2f0      	uxtb	r0, r6
     5b2:	fa01 f200 	lsl.w	r2, r1, r0
     5b6:	fa5f f18b 	uxtb.w	r1, fp
     5ba:	43d3      	mvns	r3, r2
     5bc:	2903      	cmp	r1, #3
     5be:	d806      	bhi.n	5ce <main+0x502>
     5c0:	f642 0794 	movw	r7, #10388	; 0x2894
     5c4:	f2c0 0700 	movt	r7, #0
     5c8:	f857 7021 	ldr.w	r7, [r7, r1, lsl #2]
     5cc:	e003      	b.n	5d6 <main+0x50a>
     5ce:	f24c 0780 	movw	r7, #49280	; 0xc080
     5d2:	f2c2 0709 	movt	r7, #8201	; 0x2009
     5d6:	683e      	ldr	r6, [r7, #0]
     5d8:	f01c 0fff 	tst.w	ip, #255	; 0xff
     5dc:	f04f 0400 	mov.w	r4, #0
     5e0:	ea03 0306 	and.w	r3, r3, r6
     5e4:	bf18      	it	ne
     5e6:	4313      	orrne	r3, r2
     5e8:	fa5f f28a 	uxtb.w	r2, sl
     5ec:	603b      	str	r3, [r7, #0]
     5ee:	ea4f 630c 	mov.w	r3, ip, lsl #24
     5f2:	ea43 4202 	orr.w	r2, r3, r2, lsl #16
     5f6:	ea42 2000 	orr.w	r0, r2, r0, lsl #8
     5fa:	2200      	movs	r2, #0
     5fc:	4308      	orrs	r0, r1
     5fe:	f44f 7100 	mov.w	r1, #512	; 0x200
     602:	9096      	str	r0, [sp, #600]	; 0x258
     604:	a892      	add	r0, sp, #584	; 0x248
     606:	3014      	adds	r0, #20
     608:	f001 fad0 	bl	1bac <__aeabi_memset>
     60c:	f242 1070 	movw	r0, #8560	; 0x2170
     610:	f2c0 0000 	movt	r0, #0
     614:	f8cd 045c 	str.w	r0, [sp, #1116]	; 0x45c
     618:	f240 7024 	movw	r0, #1828	; 0x724
     61c:	f8cd 0460 	str.w	r0, [sp, #1120]	; 0x460
     620:	f8cd 4464 	str.w	r4, [sp, #1124]	; 0x464
     624:	f8cd 4468 	str.w	r4, [sp, #1128]	; 0x468
     628:	f8bd 0250 	ldrh.w	r0, [sp, #592]	; 0x250
     62c:	0a01      	lsrs	r1, r0, #8
     62e:	b2c0      	uxtb	r0, r0
     630:	2803      	cmp	r0, #3
     632:	d806      	bhi.n	642 <main+0x576>
     634:	f642 0294 	movw	r2, #10388	; 0x2894
     638:	f2c0 0200 	movt	r2, #0
     63c:	f852 2020 	ldr.w	r2, [r2, r0, lsl #2]
     640:	e003      	b.n	64a <main+0x57e>
     642:	f24c 0280 	movw	r2, #49280	; 0xc080
     646:	f2c2 0209 	movt	r2, #8201	; 0x2009
     64a:	2001      	movs	r0, #1
     64c:	fa00 f101 	lsl.w	r1, r0, r1
     650:	61d1      	str	r1, [r2, #28]
     652:	f8bd 2254 	ldrh.w	r2, [sp, #596]	; 0x254
     656:	0a11      	lsrs	r1, r2, #8
     658:	b2d2      	uxtb	r2, r2
     65a:	2a03      	cmp	r2, #3
     65c:	d806      	bhi.n	66c <main+0x5a0>
     65e:	f642 0394 	movw	r3, #10388	; 0x2894
     662:	f2c0 0300 	movt	r3, #0
     666:	f853 2022 	ldr.w	r2, [r3, r2, lsl #2]
     66a:	e003      	b.n	674 <main+0x5a8>
     66c:	f24c 0280 	movw	r2, #49280	; 0xc080
     670:	f2c2 0209 	movt	r2, #8201	; 0x2009
     674:	4088      	lsls	r0, r1
     676:	6190      	str	r0, [r2, #24]
     678:	f8bd 1258 	ldrh.w	r1, [sp, #600]	; 0x258
     67c:	0a08      	lsrs	r0, r1, #8
     67e:	b2c9      	uxtb	r1, r1
     680:	2903      	cmp	r1, #3
     682:	d806      	bhi.n	692 <main+0x5c6>
     684:	f642 0294 	movw	r2, #10388	; 0x2894
     688:	f2c0 0200 	movt	r2, #0
     68c:	f852 1021 	ldr.w	r1, [r2, r1, lsl #2]
     690:	e003      	b.n	69a <main+0x5ce>
     692:	f24c 0180 	movw	r1, #49280	; 0xc080
     696:	f2c2 0109 	movt	r1, #8201	; 0x2009
     69a:	2201      	movs	r2, #1
     69c:	fa02 f000 	lsl.w	r0, r2, r0
     6a0:	61c8      	str	r0, [r1, #28]
     6a2:	9893      	ldr	r0, [sp, #588]	; 0x24c
     6a4:	6800      	ldr	r0, [r0, #0]
     6a6:	6881      	ldr	r1, [r0, #8]
     6a8:	6882      	ldr	r2, [r0, #8]
     6aa:	1a52      	subs	r2, r2, r1
     6ac:	2a32      	cmp	r2, #50	; 0x32
     6ae:	d3fb      	bcc.n	6a8 <main+0x5dc>
     6b0:	f8bd 1258 	ldrh.w	r1, [sp, #600]	; 0x258
     6b4:	0a08      	lsrs	r0, r1, #8
     6b6:	b2c9      	uxtb	r1, r1
     6b8:	2903      	cmp	r1, #3
     6ba:	d806      	bhi.n	6ca <main+0x5fe>
     6bc:	f642 0294 	movw	r2, #10388	; 0x2894
     6c0:	f2c0 0200 	movt	r2, #0
     6c4:	f852 1021 	ldr.w	r1, [r2, r1, lsl #2]
     6c8:	e003      	b.n	6d2 <main+0x606>
     6ca:	f24c 0180 	movw	r1, #49280	; 0xc080
     6ce:	f2c2 0109 	movt	r1, #8201	; 0x2009
     6d2:	2201      	movs	r2, #1
     6d4:	fa02 f000 	lsl.w	r0, r2, r0
     6d8:	f241 3288 	movw	r2, #5000	; 0x1388
     6dc:	6188      	str	r0, [r1, #24]
     6de:	9893      	ldr	r0, [sp, #588]	; 0x24c
     6e0:	6800      	ldr	r0, [r0, #0]
     6e2:	6881      	ldr	r1, [r0, #8]
     6e4:	6883      	ldr	r3, [r0, #8]
     6e6:	1a5b      	subs	r3, r3, r1
     6e8:	4293      	cmp	r3, r2
     6ea:	d3fb      	bcc.n	6e4 <main+0x618>
     6ec:	f8bd 0250 	ldrh.w	r0, [sp, #592]	; 0x250
     6f0:	0a01      	lsrs	r1, r0, #8
     6f2:	b2c0      	uxtb	r0, r0
     6f4:	2803      	cmp	r0, #3
     6f6:	d806      	bhi.n	706 <main+0x63a>
     6f8:	f642 0294 	movw	r2, #10388	; 0x2894
     6fc:	f2c0 0200 	movt	r2, #0
     700:	f852 2020 	ldr.w	r2, [r2, r0, lsl #2]
     704:	e003      	b.n	70e <main+0x642>
     706:	f24c 0280 	movw	r2, #49280	; 0xc080
     70a:	f2c2 0209 	movt	r2, #8201	; 0x2009
     70e:	2001      	movs	r0, #1
     710:	fa00 f101 	lsl.w	r1, r0, r1
     714:	61d1      	str	r1, [r2, #28]
     716:	f8bd 2254 	ldrh.w	r2, [sp, #596]	; 0x254
     71a:	0a11      	lsrs	r1, r2, #8
     71c:	b2d2      	uxtb	r2, r2
     71e:	2a03      	cmp	r2, #3
     720:	d806      	bhi.n	730 <main+0x664>
     722:	f642 0394 	movw	r3, #10388	; 0x2894
     726:	f2c0 0300 	movt	r3, #0
     72a:	f853 2022 	ldr.w	r2, [r3, r2, lsl #2]
     72e:	e003      	b.n	738 <main+0x66c>
     730:	f24c 0280 	movw	r2, #49280	; 0xc080
     734:	f2c2 0209 	movt	r2, #8201	; 0x2009
     738:	4088      	lsls	r0, r1
     73a:	61d0      	str	r0, [r2, #28]
     73c:	9892      	ldr	r0, [sp, #584]	; 0x248
     73e:	6841      	ldr	r1, [r0, #4]
     740:	68ca      	ldr	r2, [r1, #12]
     742:	f012 0f02 	tst.w	r2, #2
     746:	d0fb      	beq.n	740 <main+0x674>
     748:	22ae      	movs	r2, #174	; 0xae
     74a:	608a      	str	r2, [r1, #8]
     74c:	6840      	ldr	r0, [r0, #4]
     74e:	68c1      	ldr	r1, [r0, #12]
     750:	f011 0f10 	tst.w	r1, #16
     754:	d1fb      	bne.n	74e <main+0x682>
     756:	f8bd 0254 	ldrh.w	r0, [sp, #596]	; 0x254
     75a:	0a01      	lsrs	r1, r0, #8
     75c:	b2c0      	uxtb	r0, r0
     75e:	2803      	cmp	r0, #3
     760:	d806      	bhi.n	770 <main+0x6a4>
     762:	f642 0294 	movw	r2, #10388	; 0x2894
     766:	f2c0 0200 	movt	r2, #0
     76a:	f852 2020 	ldr.w	r2, [r2, r0, lsl #2]
     76e:	e003      	b.n	778 <main+0x6ac>
     770:	f24c 0280 	movw	r2, #49280	; 0xc080
     774:	f2c2 0209 	movt	r2, #8201	; 0x2009
     778:	2001      	movs	r0, #1
     77a:	fa00 f101 	lsl.w	r1, r0, r1
     77e:	6191      	str	r1, [r2, #24]
     780:	f8bd 2250 	ldrh.w	r2, [sp, #592]	; 0x250
     784:	0a11      	lsrs	r1, r2, #8
     786:	b2d2      	uxtb	r2, r2
     788:	2a03      	cmp	r2, #3
     78a:	d806      	bhi.n	79a <main+0x6ce>
     78c:	f642 0394 	movw	r3, #10388	; 0x2894
     790:	f2c0 0300 	movt	r3, #0
     794:	f853 2022 	ldr.w	r2, [r3, r2, lsl #2]
     798:	e003      	b.n	7a2 <main+0x6d6>
     79a:	f24c 0280 	movw	r2, #49280	; 0xc080
     79e:	f2c2 0209 	movt	r2, #8201	; 0x2009
     7a2:	4088      	lsls	r0, r1
     7a4:	61d0      	str	r0, [r2, #28]
     7a6:	f8bd 1254 	ldrh.w	r1, [sp, #596]	; 0x254
     7aa:	0a08      	lsrs	r0, r1, #8
     7ac:	b2c9      	uxtb	r1, r1
     7ae:	2903      	cmp	r1, #3
     7b0:	d806      	bhi.n	7c0 <main+0x6f4>
     7b2:	f642 0294 	movw	r2, #10388	; 0x2894
     7b6:	f2c0 0200 	movt	r2, #0
     7ba:	f852 1021 	ldr.w	r1, [r2, r1, lsl #2]
     7be:	e003      	b.n	7c8 <main+0x6fc>
     7c0:	f24c 0180 	movw	r1, #49280	; 0xc080
     7c4:	f2c2 0109 	movt	r1, #8201	; 0x2009
     7c8:	2201      	movs	r2, #1
     7ca:	fa02 f000 	lsl.w	r0, r2, r0
     7ce:	61c8      	str	r0, [r1, #28]
     7d0:	9892      	ldr	r0, [sp, #584]	; 0x248
     7d2:	6841      	ldr	r1, [r0, #4]
     7d4:	68ca      	ldr	r2, [r1, #12]
     7d6:	f012 0f02 	tst.w	r2, #2
     7da:	d0fb      	beq.n	7d4 <main+0x708>
     7dc:	22a2      	movs	r2, #162	; 0xa2
     7de:	608a      	str	r2, [r1, #8]
     7e0:	6840      	ldr	r0, [r0, #4]
     7e2:	68c1      	ldr	r1, [r0, #12]
     7e4:	f011 0f10 	tst.w	r1, #16
     7e8:	d1fb      	bne.n	7e2 <main+0x716>
     7ea:	f8bd 0254 	ldrh.w	r0, [sp, #596]	; 0x254
     7ee:	0a01      	lsrs	r1, r0, #8
     7f0:	b2c0      	uxtb	r0, r0
     7f2:	2803      	cmp	r0, #3
     7f4:	d806      	bhi.n	804 <main+0x738>
     7f6:	f642 0294 	movw	r2, #10388	; 0x2894
     7fa:	f2c0 0200 	movt	r2, #0
     7fe:	f852 2020 	ldr.w	r2, [r2, r0, lsl #2]
     802:	e003      	b.n	80c <main+0x740>
     804:	f24c 0280 	movw	r2, #49280	; 0xc080
     808:	f2c2 0209 	movt	r2, #8201	; 0x2009
     80c:	2001      	movs	r0, #1
     80e:	fa00 f101 	lsl.w	r1, r0, r1
     812:	6191      	str	r1, [r2, #24]
     814:	f8bd 2250 	ldrh.w	r2, [sp, #592]	; 0x250
     818:	0a11      	lsrs	r1, r2, #8
     81a:	b2d2      	uxtb	r2, r2
     81c:	2a03      	cmp	r2, #3
     81e:	d806      	bhi.n	82e <main+0x762>
     820:	f642 0394 	movw	r3, #10388	; 0x2894
     824:	f2c0 0300 	movt	r3, #0
     828:	f853 2022 	ldr.w	r2, [r3, r2, lsl #2]
     82c:	e003      	b.n	836 <main+0x76a>
     82e:	f24c 0280 	movw	r2, #49280	; 0xc080
     832:	f2c2 0209 	movt	r2, #8201	; 0x2009
     836:	4088      	lsls	r0, r1
     838:	61d0      	str	r0, [r2, #28]
     83a:	f8bd 1254 	ldrh.w	r1, [sp, #596]	; 0x254
     83e:	0a08      	lsrs	r0, r1, #8
     840:	b2c9      	uxtb	r1, r1
     842:	2903      	cmp	r1, #3
     844:	d806      	bhi.n	854 <main+0x788>
     846:	f642 0294 	movw	r2, #10388	; 0x2894
     84a:	f2c0 0200 	movt	r2, #0
     84e:	f852 1021 	ldr.w	r1, [r2, r1, lsl #2]
     852:	e003      	b.n	85c <main+0x790>
     854:	f24c 0180 	movw	r1, #49280	; 0xc080
     858:	f2c2 0109 	movt	r1, #8201	; 0x2009
     85c:	2201      	movs	r2, #1
     85e:	fa02 f000 	lsl.w	r0, r2, r0
     862:	61c8      	str	r0, [r1, #28]
     864:	9892      	ldr	r0, [sp, #584]	; 0x248
     866:	6841      	ldr	r1, [r0, #4]
     868:	68ca      	ldr	r2, [r1, #12]
     86a:	f012 0f02 	tst.w	r2, #2
     86e:	d0fb      	beq.n	868 <main+0x79c>
     870:	22a0      	movs	r2, #160	; 0xa0
     872:	608a      	str	r2, [r1, #8]
     874:	6840      	ldr	r0, [r0, #4]
     876:	68c1      	ldr	r1, [r0, #12]
     878:	f011 0f10 	tst.w	r1, #16
     87c:	d1fb      	bne.n	876 <main+0x7aa>
     87e:	f8bd 0254 	ldrh.w	r0, [sp, #596]	; 0x254
     882:	0a01      	lsrs	r1, r0, #8
     884:	b2c0      	uxtb	r0, r0
     886:	2803      	cmp	r0, #3
     888:	d806      	bhi.n	898 <main+0x7cc>
     88a:	f642 0294 	movw	r2, #10388	; 0x2894
     88e:	f2c0 0200 	movt	r2, #0
     892:	f852 2020 	ldr.w	r2, [r2, r0, lsl #2]
     896:	e003      	b.n	8a0 <main+0x7d4>
     898:	f24c 0280 	movw	r2, #49280	; 0xc080
     89c:	f2c2 0209 	movt	r2, #8201	; 0x2009
     8a0:	2001      	movs	r0, #1
     8a2:	fa00 f101 	lsl.w	r1, r0, r1
     8a6:	6191      	str	r1, [r2, #24]
     8a8:	f8bd 2250 	ldrh.w	r2, [sp, #592]	; 0x250
     8ac:	0a11      	lsrs	r1, r2, #8
     8ae:	b2d2      	uxtb	r2, r2
     8b0:	2a03      	cmp	r2, #3
     8b2:	d806      	bhi.n	8c2 <main+0x7f6>
     8b4:	f642 0394 	movw	r3, #10388	; 0x2894
     8b8:	f2c0 0300 	movt	r3, #0
     8bc:	f853 2022 	ldr.w	r2, [r3, r2, lsl #2]
     8c0:	e003      	b.n	8ca <main+0x7fe>
     8c2:	f24c 0280 	movw	r2, #49280	; 0xc080
     8c6:	f2c2 0209 	movt	r2, #8201	; 0x2009
     8ca:	4088      	lsls	r0, r1
     8cc:	61d0      	str	r0, [r2, #28]
     8ce:	f8bd 1254 	ldrh.w	r1, [sp, #596]	; 0x254
     8d2:	0a08      	lsrs	r0, r1, #8
     8d4:	b2c9      	uxtb	r1, r1
     8d6:	2903      	cmp	r1, #3
     8d8:	d806      	bhi.n	8e8 <main+0x81c>
     8da:	f642 0294 	movw	r2, #10388	; 0x2894
     8de:	f2c0 0200 	movt	r2, #0
     8e2:	f852 1021 	ldr.w	r1, [r2, r1, lsl #2]
     8e6:	e003      	b.n	8f0 <main+0x824>
     8e8:	f24c 0180 	movw	r1, #49280	; 0xc080
     8ec:	f2c2 0109 	movt	r1, #8201	; 0x2009
     8f0:	2201      	movs	r2, #1
     8f2:	fa02 f000 	lsl.w	r0, r2, r0
     8f6:	61c8      	str	r0, [r1, #28]
     8f8:	9892      	ldr	r0, [sp, #584]	; 0x248
     8fa:	6841      	ldr	r1, [r0, #4]
     8fc:	68ca      	ldr	r2, [r1, #12]
     8fe:	f012 0f02 	tst.w	r2, #2
     902:	d0fb      	beq.n	8fc <main+0x830>
     904:	22c8      	movs	r2, #200	; 0xc8
     906:	608a      	str	r2, [r1, #8]
     908:	6840      	ldr	r0, [r0, #4]
     90a:	68c1      	ldr	r1, [r0, #12]
     90c:	f011 0f10 	tst.w	r1, #16
     910:	d1fb      	bne.n	90a <main+0x83e>
     912:	f8bd 0254 	ldrh.w	r0, [sp, #596]	; 0x254
     916:	0a01      	lsrs	r1, r0, #8
     918:	b2c0      	uxtb	r0, r0
     91a:	2803      	cmp	r0, #3
     91c:	d806      	bhi.n	92c <main+0x860>
     91e:	f642 0294 	movw	r2, #10388	; 0x2894
     922:	f2c0 0200 	movt	r2, #0
     926:	f852 2020 	ldr.w	r2, [r2, r0, lsl #2]
     92a:	e003      	b.n	934 <main+0x868>
     92c:	f24c 0280 	movw	r2, #49280	; 0xc080
     930:	f2c2 0209 	movt	r2, #8201	; 0x2009
     934:	2001      	movs	r0, #1
     936:	fa00 f101 	lsl.w	r1, r0, r1
     93a:	6191      	str	r1, [r2, #24]
     93c:	f8bd 2250 	ldrh.w	r2, [sp, #592]	; 0x250
     940:	0a11      	lsrs	r1, r2, #8
     942:	b2d2      	uxtb	r2, r2
     944:	2a03      	cmp	r2, #3
     946:	d806      	bhi.n	956 <main+0x88a>
     948:	f642 0394 	movw	r3, #10388	; 0x2894
     94c:	f2c0 0300 	movt	r3, #0
     950:	f853 2022 	ldr.w	r2, [r3, r2, lsl #2]
     954:	e003      	b.n	95e <main+0x892>
     956:	f24c 0280 	movw	r2, #49280	; 0xc080
     95a:	f2c2 0209 	movt	r2, #8201	; 0x2009
     95e:	4088      	lsls	r0, r1
     960:	61d0      	str	r0, [r2, #28]
     962:	f8bd 1254 	ldrh.w	r1, [sp, #596]	; 0x254
     966:	0a08      	lsrs	r0, r1, #8
     968:	b2c9      	uxtb	r1, r1
     96a:	2903      	cmp	r1, #3
     96c:	d806      	bhi.n	97c <main+0x8b0>
     96e:	f642 0294 	movw	r2, #10388	; 0x2894
     972:	f2c0 0200 	movt	r2, #0
     976:	f852 1021 	ldr.w	r1, [r2, r1, lsl #2]
     97a:	e003      	b.n	984 <main+0x8b8>
     97c:	f24c 0180 	movw	r1, #49280	; 0xc080
     980:	f2c2 0109 	movt	r1, #8201	; 0x2009
     984:	2201      	movs	r2, #1
     986:	fa02 f000 	lsl.w	r0, r2, r0
     98a:	61c8      	str	r0, [r1, #28]
     98c:	9892      	ldr	r0, [sp, #584]	; 0x248
     98e:	6841      	ldr	r1, [r0, #4]
     990:	68ca      	ldr	r2, [r1, #12]
     992:	f012 0f02 	tst.w	r2, #2
     996:	d0fb      	beq.n	990 <main+0x8c4>
     998:	2222      	movs	r2, #34	; 0x22
     99a:	608a      	str	r2, [r1, #8]
     99c:	6840      	ldr	r0, [r0, #4]
     99e:	68c1      	ldr	r1, [r0, #12]
     9a0:	f011 0f10 	tst.w	r1, #16
     9a4:	d1fb      	bne.n	99e <main+0x8d2>
     9a6:	f8bd 0254 	ldrh.w	r0, [sp, #596]	; 0x254
     9aa:	0a01      	lsrs	r1, r0, #8
     9ac:	b2c0      	uxtb	r0, r0
     9ae:	2803      	cmp	r0, #3
     9b0:	d806      	bhi.n	9c0 <main+0x8f4>
     9b2:	f642 0294 	movw	r2, #10388	; 0x2894
     9b6:	f2c0 0200 	movt	r2, #0
     9ba:	f852 2020 	ldr.w	r2, [r2, r0, lsl #2]
     9be:	e003      	b.n	9c8 <main+0x8fc>
     9c0:	f24c 0280 	movw	r2, #49280	; 0xc080
     9c4:	f2c2 0209 	movt	r2, #8201	; 0x2009
     9c8:	2001      	movs	r0, #1
     9ca:	fa00 f101 	lsl.w	r1, r0, r1
     9ce:	6191      	str	r1, [r2, #24]
     9d0:	f8bd 2250 	ldrh.w	r2, [sp, #592]	; 0x250
     9d4:	0a11      	lsrs	r1, r2, #8
     9d6:	b2d2      	uxtb	r2, r2
     9d8:	2a03      	cmp	r2, #3
     9da:	d806      	bhi.n	9ea <main+0x91e>
     9dc:	f642 0394 	movw	r3, #10388	; 0x2894
     9e0:	f2c0 0300 	movt	r3, #0
     9e4:	f853 2022 	ldr.w	r2, [r3, r2, lsl #2]
     9e8:	e003      	b.n	9f2 <main+0x926>
     9ea:	f24c 0280 	movw	r2, #49280	; 0xc080
     9ee:	f2c2 0209 	movt	r2, #8201	; 0x2009
     9f2:	4088      	lsls	r0, r1
     9f4:	61d0      	str	r0, [r2, #28]
     9f6:	f8bd 1254 	ldrh.w	r1, [sp, #596]	; 0x254
     9fa:	0a08      	lsrs	r0, r1, #8
     9fc:	b2c9      	uxtb	r1, r1
     9fe:	2903      	cmp	r1, #3
     a00:	d806      	bhi.n	a10 <main+0x944>
     a02:	f642 0294 	movw	r2, #10388	; 0x2894
     a06:	f2c0 0200 	movt	r2, #0
     a0a:	f852 1021 	ldr.w	r1, [r2, r1, lsl #2]
     a0e:	e003      	b.n	a18 <main+0x94c>
     a10:	f24c 0180 	movw	r1, #49280	; 0xc080
     a14:	f2c2 0109 	movt	r1, #8201	; 0x2009
     a18:	2201      	movs	r2, #1
     a1a:	fa02 f000 	lsl.w	r0, r2, r0
     a1e:	61c8      	str	r0, [r1, #28]
     a20:	9892      	ldr	r0, [sp, #584]	; 0x248
     a22:	6841      	ldr	r1, [r0, #4]
     a24:	68ca      	ldr	r2, [r1, #12]
     a26:	f012 0f02 	tst.w	r2, #2
     a2a:	d0fb      	beq.n	a24 <main+0x958>
     a2c:	222f      	movs	r2, #47	; 0x2f
     a2e:	608a      	str	r2, [r1, #8]
     a30:	6840      	ldr	r0, [r0, #4]
     a32:	68c1      	ldr	r1, [r0, #12]
     a34:	f011 0f10 	tst.w	r1, #16
     a38:	d1fb      	bne.n	a32 <main+0x966>
     a3a:	f8bd 0254 	ldrh.w	r0, [sp, #596]	; 0x254
     a3e:	0a01      	lsrs	r1, r0, #8
     a40:	b2c0      	uxtb	r0, r0
     a42:	2803      	cmp	r0, #3
     a44:	d806      	bhi.n	a54 <main+0x988>
     a46:	f642 0294 	movw	r2, #10388	; 0x2894
     a4a:	f2c0 0200 	movt	r2, #0
     a4e:	f852 2020 	ldr.w	r2, [r2, r0, lsl #2]
     a52:	e003      	b.n	a5c <main+0x990>
     a54:	f24c 0280 	movw	r2, #49280	; 0xc080
     a58:	f2c2 0209 	movt	r2, #8201	; 0x2009
     a5c:	2001      	movs	r0, #1
     a5e:	fa00 f101 	lsl.w	r1, r0, r1
     a62:	6191      	str	r1, [r2, #24]
     a64:	f8bd 2250 	ldrh.w	r2, [sp, #592]	; 0x250
     a68:	0a11      	lsrs	r1, r2, #8
     a6a:	b2d2      	uxtb	r2, r2
     a6c:	2a03      	cmp	r2, #3
     a6e:	d806      	bhi.n	a7e <main+0x9b2>
     a70:	f642 0394 	movw	r3, #10388	; 0x2894
     a74:	f2c0 0300 	movt	r3, #0
     a78:	f853 2022 	ldr.w	r2, [r3, r2, lsl #2]
     a7c:	e003      	b.n	a86 <main+0x9ba>
     a7e:	f24c 0280 	movw	r2, #49280	; 0xc080
     a82:	f2c2 0209 	movt	r2, #8201	; 0x2009
     a86:	4088      	lsls	r0, r1
     a88:	61d0      	str	r0, [r2, #28]
     a8a:	f8bd 1254 	ldrh.w	r1, [sp, #596]	; 0x254
     a8e:	0a08      	lsrs	r0, r1, #8
     a90:	b2c9      	uxtb	r1, r1
     a92:	2903      	cmp	r1, #3
     a94:	d806      	bhi.n	aa4 <main+0x9d8>
     a96:	f642 0294 	movw	r2, #10388	; 0x2894
     a9a:	f2c0 0200 	movt	r2, #0
     a9e:	f852 1021 	ldr.w	r1, [r2, r1, lsl #2]
     aa2:	e003      	b.n	aac <main+0x9e0>
     aa4:	f24c 0180 	movw	r1, #49280	; 0xc080
     aa8:	f2c2 0109 	movt	r1, #8201	; 0x2009
     aac:	2201      	movs	r2, #1
     aae:	fa02 f000 	lsl.w	r0, r2, r0
     ab2:	61c8      	str	r0, [r1, #28]
     ab4:	9892      	ldr	r0, [sp, #584]	; 0x248
     ab6:	6841      	ldr	r1, [r0, #4]
     ab8:	68ca      	ldr	r2, [r1, #12]
     aba:	f012 0f02 	tst.w	r2, #2
     abe:	d0fb      	beq.n	ab8 <main+0x9ec>
     ac0:	2240      	movs	r2, #64	; 0x40
     ac2:	608a      	str	r2, [r1, #8]
     ac4:	6840      	ldr	r0, [r0, #4]
     ac6:	68c1      	ldr	r1, [r0, #12]
     ac8:	f011 0f10 	tst.w	r1, #16
     acc:	d1fb      	bne.n	ac6 <main+0x9fa>
     ace:	f8bd 0254 	ldrh.w	r0, [sp, #596]	; 0x254
     ad2:	0a01      	lsrs	r1, r0, #8
     ad4:	b2c0      	uxtb	r0, r0
     ad6:	2803      	cmp	r0, #3
     ad8:	d806      	bhi.n	ae8 <main+0xa1c>
     ada:	f642 0294 	movw	r2, #10388	; 0x2894
     ade:	f2c0 0200 	movt	r2, #0
     ae2:	f852 2020 	ldr.w	r2, [r2, r0, lsl #2]
     ae6:	e003      	b.n	af0 <main+0xa24>
     ae8:	f24c 0280 	movw	r2, #49280	; 0xc080
     aec:	f2c2 0209 	movt	r2, #8201	; 0x2009
     af0:	2001      	movs	r0, #1
     af2:	fa00 f101 	lsl.w	r1, r0, r1
     af6:	6191      	str	r1, [r2, #24]
     af8:	f8bd 2250 	ldrh.w	r2, [sp, #592]	; 0x250
     afc:	0a11      	lsrs	r1, r2, #8
     afe:	b2d2      	uxtb	r2, r2
     b00:	2a03      	cmp	r2, #3
     b02:	d806      	bhi.n	b12 <main+0xa46>
     b04:	f642 0394 	movw	r3, #10388	; 0x2894
     b08:	f2c0 0300 	movt	r3, #0
     b0c:	f853 2022 	ldr.w	r2, [r3, r2, lsl #2]
     b10:	e003      	b.n	b1a <main+0xa4e>
     b12:	f24c 0280 	movw	r2, #49280	; 0xc080
     b16:	f2c2 0209 	movt	r2, #8201	; 0x2009
     b1a:	4088      	lsls	r0, r1
     b1c:	61d0      	str	r0, [r2, #28]
     b1e:	f8bd 1254 	ldrh.w	r1, [sp, #596]	; 0x254
     b22:	0a08      	lsrs	r0, r1, #8
     b24:	b2c9      	uxtb	r1, r1
     b26:	2903      	cmp	r1, #3
     b28:	d806      	bhi.n	b38 <main+0xa6c>
     b2a:	f642 0294 	movw	r2, #10388	; 0x2894
     b2e:	f2c0 0200 	movt	r2, #0
     b32:	f852 1021 	ldr.w	r1, [r2, r1, lsl #2]
     b36:	e003      	b.n	b40 <main+0xa74>
     b38:	f24c 0180 	movw	r1, #49280	; 0xc080
     b3c:	f2c2 0109 	movt	r1, #8201	; 0x2009
     b40:	2201      	movs	r2, #1
     b42:	fa02 f000 	lsl.w	r0, r2, r0
     b46:	61c8      	str	r0, [r1, #28]
     b48:	9892      	ldr	r0, [sp, #584]	; 0x248
     b4a:	6841      	ldr	r1, [r0, #4]
     b4c:	68ca      	ldr	r2, [r1, #12]
     b4e:	f012 0f02 	tst.w	r2, #2
     b52:	d0fb      	beq.n	b4c <main+0xa80>
     b54:	22af      	movs	r2, #175	; 0xaf
     b56:	608a      	str	r2, [r1, #8]
     b58:	6840      	ldr	r0, [r0, #4]
     b5a:	68c1      	ldr	r1, [r0, #12]
     b5c:	f011 0f10 	tst.w	r1, #16
     b60:	d1fb      	bne.n	b5a <main+0xa8e>
     b62:	f8bd 0254 	ldrh.w	r0, [sp, #596]	; 0x254
     b66:	0a01      	lsrs	r1, r0, #8
     b68:	b2c0      	uxtb	r0, r0
     b6a:	2803      	cmp	r0, #3
     b6c:	d806      	bhi.n	b7c <main+0xab0>
     b6e:	f642 0294 	movw	r2, #10388	; 0x2894
     b72:	f2c0 0200 	movt	r2, #0
     b76:	f852 2020 	ldr.w	r2, [r2, r0, lsl #2]
     b7a:	e003      	b.n	b84 <main+0xab8>
     b7c:	f24c 0280 	movw	r2, #49280	; 0xc080
     b80:	f2c2 0209 	movt	r2, #8201	; 0x2009
     b84:	2001      	movs	r0, #1
     b86:	fa00 f101 	lsl.w	r1, r0, r1
     b8a:	6191      	str	r1, [r2, #24]
     b8c:	f8bd 2250 	ldrh.w	r2, [sp, #592]	; 0x250
     b90:	0a11      	lsrs	r1, r2, #8
     b92:	b2d2      	uxtb	r2, r2
     b94:	2a03      	cmp	r2, #3
     b96:	d806      	bhi.n	ba6 <main+0xada>
     b98:	f642 0394 	movw	r3, #10388	; 0x2894
     b9c:	f2c0 0300 	movt	r3, #0
     ba0:	f853 2022 	ldr.w	r2, [r3, r2, lsl #2]
     ba4:	e003      	b.n	bae <main+0xae2>
     ba6:	f24c 0280 	movw	r2, #49280	; 0xc080
     baa:	f2c2 0209 	movt	r2, #8201	; 0x2009
     bae:	4088      	lsls	r0, r1
     bb0:	61d0      	str	r0, [r2, #28]
     bb2:	f8bd 1254 	ldrh.w	r1, [sp, #596]	; 0x254
     bb6:	0a08      	lsrs	r0, r1, #8
     bb8:	b2c9      	uxtb	r1, r1
     bba:	2903      	cmp	r1, #3
     bbc:	d806      	bhi.n	bcc <main+0xb00>
     bbe:	f642 0294 	movw	r2, #10388	; 0x2894
     bc2:	f2c0 0200 	movt	r2, #0
     bc6:	f852 1021 	ldr.w	r1, [r2, r1, lsl #2]
     bca:	e003      	b.n	bd4 <main+0xb08>
     bcc:	f24c 0180 	movw	r1, #49280	; 0xc080
     bd0:	f2c2 0109 	movt	r1, #8201	; 0x2009
     bd4:	2201      	movs	r2, #1
     bd6:	fa02 f000 	lsl.w	r0, r2, r0
     bda:	61c8      	str	r0, [r1, #28]
     bdc:	9892      	ldr	r0, [sp, #584]	; 0x248
     bde:	6841      	ldr	r1, [r0, #4]
     be0:	68ca      	ldr	r2, [r1, #12]
     be2:	f012 0f02 	tst.w	r2, #2
     be6:	d0fb      	beq.n	be0 <main+0xb14>
     be8:	2281      	movs	r2, #129	; 0x81
     bea:	608a      	str	r2, [r1, #8]
     bec:	6840      	ldr	r0, [r0, #4]
     bee:	68c1      	ldr	r1, [r0, #12]
     bf0:	f011 0f10 	tst.w	r1, #16
     bf4:	d1fb      	bne.n	bee <main+0xb22>
     bf6:	f8bd 0254 	ldrh.w	r0, [sp, #596]	; 0x254
     bfa:	0a01      	lsrs	r1, r0, #8
     bfc:	b2c0      	uxtb	r0, r0
     bfe:	2803      	cmp	r0, #3
     c00:	d806      	bhi.n	c10 <main+0xb44>
     c02:	f642 0294 	movw	r2, #10388	; 0x2894
     c06:	f2c0 0200 	movt	r2, #0
     c0a:	f852 2020 	ldr.w	r2, [r2, r0, lsl #2]
     c0e:	e003      	b.n	c18 <main+0xb4c>
     c10:	f24c 0280 	movw	r2, #49280	; 0xc080
     c14:	f2c2 0209 	movt	r2, #8201	; 0x2009
     c18:	2001      	movs	r0, #1
     c1a:	fa00 f101 	lsl.w	r1, r0, r1
     c1e:	6191      	str	r1, [r2, #24]
     c20:	f8bd 2250 	ldrh.w	r2, [sp, #592]	; 0x250
     c24:	0a11      	lsrs	r1, r2, #8
     c26:	b2d2      	uxtb	r2, r2
     c28:	2a03      	cmp	r2, #3
     c2a:	d806      	bhi.n	c3a <main+0xb6e>
     c2c:	f642 0394 	movw	r3, #10388	; 0x2894
     c30:	f2c0 0300 	movt	r3, #0
     c34:	f853 2022 	ldr.w	r2, [r3, r2, lsl #2]
     c38:	e003      	b.n	c42 <main+0xb76>
     c3a:	f24c 0280 	movw	r2, #49280	; 0xc080
     c3e:	f2c2 0209 	movt	r2, #8201	; 0x2009
     c42:	4088      	lsls	r0, r1
     c44:	61d0      	str	r0, [r2, #28]
     c46:	f8bd 1254 	ldrh.w	r1, [sp, #596]	; 0x254
     c4a:	0a08      	lsrs	r0, r1, #8
     c4c:	b2c9      	uxtb	r1, r1
     c4e:	2903      	cmp	r1, #3
     c50:	d806      	bhi.n	c60 <main+0xb94>
     c52:	f642 0294 	movw	r2, #10388	; 0x2894
     c56:	f2c0 0200 	movt	r2, #0
     c5a:	f852 1021 	ldr.w	r1, [r2, r1, lsl #2]
     c5e:	e003      	b.n	c68 <main+0xb9c>
     c60:	f24c 0180 	movw	r1, #49280	; 0xc080
     c64:	f2c2 0109 	movt	r1, #8201	; 0x2009
     c68:	2201      	movs	r2, #1
     c6a:	fa02 f000 	lsl.w	r0, r2, r0
     c6e:	61c8      	str	r0, [r1, #28]
     c70:	9892      	ldr	r0, [sp, #584]	; 0x248
     c72:	6841      	ldr	r1, [r0, #4]
     c74:	68ca      	ldr	r2, [r1, #12]
     c76:	f012 0f02 	tst.w	r2, #2
     c7a:	d0fb      	beq.n	c74 <main+0xba8>
     c7c:	2217      	movs	r2, #23
     c7e:	608a      	str	r2, [r1, #8]
     c80:	6840      	ldr	r0, [r0, #4]
     c82:	68c1      	ldr	r1, [r0, #12]
     c84:	f011 0f10 	tst.w	r1, #16
     c88:	d1fb      	bne.n	c82 <main+0xbb6>
     c8a:	f8bd 0254 	ldrh.w	r0, [sp, #596]	; 0x254
     c8e:	0a01      	lsrs	r1, r0, #8
     c90:	b2c0      	uxtb	r0, r0
     c92:	2803      	cmp	r0, #3
     c94:	d806      	bhi.n	ca4 <main+0xbd8>
     c96:	f642 0294 	movw	r2, #10388	; 0x2894
     c9a:	f2c0 0200 	movt	r2, #0
     c9e:	f852 2020 	ldr.w	r2, [r2, r0, lsl #2]
     ca2:	e003      	b.n	cac <main+0xbe0>
     ca4:	f24c 0280 	movw	r2, #49280	; 0xc080
     ca8:	f2c2 0209 	movt	r2, #8201	; 0x2009
     cac:	2001      	movs	r0, #1
     cae:	fa00 f101 	lsl.w	r1, r0, r1
     cb2:	6191      	str	r1, [r2, #24]
     cb4:	f8bd 2250 	ldrh.w	r2, [sp, #592]	; 0x250
     cb8:	0a11      	lsrs	r1, r2, #8
     cba:	b2d2      	uxtb	r2, r2
     cbc:	2a03      	cmp	r2, #3
     cbe:	d806      	bhi.n	cce <main+0xc02>
     cc0:	f642 0394 	movw	r3, #10388	; 0x2894
     cc4:	f2c0 0300 	movt	r3, #0
     cc8:	f853 2022 	ldr.w	r2, [r3, r2, lsl #2]
     ccc:	e003      	b.n	cd6 <main+0xc0a>
     cce:	f24c 0280 	movw	r2, #49280	; 0xc080
     cd2:	f2c2 0209 	movt	r2, #8201	; 0x2009
     cd6:	4088      	lsls	r0, r1
     cd8:	61d0      	str	r0, [r2, #28]
     cda:	f8bd 1254 	ldrh.w	r1, [sp, #596]	; 0x254
     cde:	0a08      	lsrs	r0, r1, #8
     ce0:	b2c9      	uxtb	r1, r1
     ce2:	2903      	cmp	r1, #3
     ce4:	d806      	bhi.n	cf4 <main+0xc28>
     ce6:	f642 0294 	movw	r2, #10388	; 0x2894
     cea:	f2c0 0200 	movt	r2, #0
     cee:	f852 1021 	ldr.w	r1, [r2, r1, lsl #2]
     cf2:	e003      	b.n	cfc <main+0xc30>
     cf4:	f24c 0180 	movw	r1, #49280	; 0xc080
     cf8:	f2c2 0109 	movt	r1, #8201	; 0x2009
     cfc:	2201      	movs	r2, #1
     cfe:	fa02 f000 	lsl.w	r0, r2, r0
     d02:	61c8      	str	r0, [r1, #28]
     d04:	9892      	ldr	r0, [sp, #584]	; 0x248
     d06:	6841      	ldr	r1, [r0, #4]
     d08:	68ca      	ldr	r2, [r1, #12]
     d0a:	f012 0f02 	tst.w	r2, #2
     d0e:	d0fb      	beq.n	d08 <main+0xc3c>
     d10:	22a6      	movs	r2, #166	; 0xa6
     d12:	608a      	str	r2, [r1, #8]
     d14:	6840      	ldr	r0, [r0, #4]
     d16:	68c1      	ldr	r1, [r0, #12]
     d18:	f011 0f10 	tst.w	r1, #16
     d1c:	d1fb      	bne.n	d16 <main+0xc4a>
     d1e:	f8bd 1254 	ldrh.w	r1, [sp, #596]	; 0x254
     d22:	0a08      	lsrs	r0, r1, #8
     d24:	b2c9      	uxtb	r1, r1
     d26:	2903      	cmp	r1, #3
     d28:	d806      	bhi.n	d38 <main+0xc6c>
     d2a:	f642 0294 	movw	r2, #10388	; 0x2894
     d2e:	f2c0 0200 	movt	r2, #0
     d32:	f852 1021 	ldr.w	r1, [r2, r1, lsl #2]
     d36:	e003      	b.n	d40 <main+0xc74>
     d38:	f24c 0180 	movw	r1, #49280	; 0xc080
     d3c:	f2c2 0109 	movt	r1, #8201	; 0x2009
     d40:	2201      	movs	r2, #1
     d42:	ac92      	add	r4, sp, #584	; 0x248
     d44:	fa02 f000 	lsl.w	r0, r2, r0
     d48:	6188      	str	r0, [r1, #24]
     d4a:	4620      	mov	r0, r4
     d4c:	f000 f99c 	bl	1088 <_ZN7drivers3lcd6c1233239C12332$LT$$x27a$C$$x20S$C$$x20T$GT$.LCD5flush20h70005536228177459644v0.0E>
     d50:	ad04      	add	r5, sp, #16
     d52:	4621      	mov	r1, r4
     d54:	f44f 7209 	mov.w	r2, #548	; 0x224
     d58:	4628      	mov	r0, r5
     d5a:	f000 ff1d 	bl	1b98 <__aeabi_memcpy>
     d5e:	f105 0014 	add.w	r0, r5, #20
     d62:	f44f 7100 	mov.w	r1, #512	; 0x200
     d66:	2200      	movs	r2, #0
     d68:	2500      	movs	r5, #0
     d6a:	9002      	str	r0, [sp, #8]
     d6c:	f000 ff1e 	bl	1bac <__aeabi_memset>
     d70:	bb2d      	cbnz	r5, dbe <main+0xcf2>
     d72:	ad04      	add	r5, sp, #16
     d74:	2168      	movs	r1, #104	; 0x68
     d76:	4628      	mov	r0, r5
     d78:	f000 fd7a 	bl	1870 <_ZN7drivers3lcd6c1233242C12332$LT$$x27a$C$$x20S$C$$x20T$GT$.CharIO4putc21h124160362025483059614v0.0E>
     d7c:	4628      	mov	r0, r5
     d7e:	2165      	movs	r1, #101	; 0x65
     d80:	f000 fd76 	bl	1870 <_ZN7drivers3lcd6c1233242C12332$LT$$x27a$C$$x20S$C$$x20T$GT$.CharIO4putc21h124160362025483059614v0.0E>
     d84:	4628      	mov	r0, r5
     d86:	216c      	movs	r1, #108	; 0x6c
     d88:	f000 fd72 	bl	1870 <_ZN7drivers3lcd6c1233242C12332$LT$$x27a$C$$x20S$C$$x20T$GT$.CharIO4putc21h124160362025483059614v0.0E>
     d8c:	4628      	mov	r0, r5
     d8e:	216c      	movs	r1, #108	; 0x6c
     d90:	f000 fd6e 	bl	1870 <_ZN7drivers3lcd6c1233242C12332$LT$$x27a$C$$x20S$C$$x20T$GT$.CharIO4putc21h124160362025483059614v0.0E>
     d94:	4628      	mov	r0, r5
     d96:	216f      	movs	r1, #111	; 0x6f
     d98:	f000 fd6a 	bl	1870 <_ZN7drivers3lcd6c1233242C12332$LT$$x27a$C$$x20S$C$$x20T$GT$.CharIO4putc21h124160362025483059614v0.0E>
     d9c:	4628      	mov	r0, r5
     d9e:	2120      	movs	r1, #32
     da0:	f000 fd66 	bl	1870 <_ZN7drivers3lcd6c1233242C12332$LT$$x27a$C$$x20S$C$$x20T$GT$.CharIO4putc21h124160362025483059614v0.0E>
     da4:	4628      	mov	r0, r5
     da6:	216c      	movs	r1, #108	; 0x6c
     da8:	f000 fd62 	bl	1870 <_ZN7drivers3lcd6c1233242C12332$LT$$x27a$C$$x20S$C$$x20T$GT$.CharIO4putc21h124160362025483059614v0.0E>
     dac:	4628      	mov	r0, r5
     dae:	2163      	movs	r1, #99	; 0x63
     db0:	f000 fd5e 	bl	1870 <_ZN7drivers3lcd6c1233242C12332$LT$$x27a$C$$x20S$C$$x20T$GT$.CharIO4putc21h124160362025483059614v0.0E>
     db4:	4628      	mov	r0, r5
     db6:	2164      	movs	r1, #100	; 0x64
     db8:	2500      	movs	r5, #0
     dba:	f000 fd59 	bl	1870 <_ZN7drivers3lcd6c1233242C12332$LT$$x27a$C$$x20S$C$$x20T$GT$.CharIO4putc21h124160362025483059614v0.0E>
     dbe:	ae04      	add	r6, sp, #16
     dc0:	4630      	mov	r0, r6
     dc2:	f000 f961 	bl	1088 <_ZN7drivers3lcd6c1233239C12332$LT$$x27a$C$$x20S$C$$x20T$GT$.LCD5flush20h70005536228177459644v0.0E>
     dc6:	f244 2a40 	movw	sl, #16960	; 0x4240
     dca:	f64c 4bcd 	movw	fp, #52429	; 0xcccd
     dce:	f20d 48d4 	addw	r8, sp, #1236	; 0x4d4
     dd2:	f04f 0966 	mov.w	r9, #102	; 0x66
     dd6:	f50d 6791 	add.w	r7, sp, #1160	; 0x488
     dda:	2000      	movs	r0, #0
     ddc:	f2c0 0a0f 	movt	sl, #15
     de0:	f6cc 4bcc 	movt	fp, #52428	; 0xcccc
     de4:	e001      	b.n	dea <main+0xd1e>
     de6:	9803      	ldr	r0, [sp, #12]
     de8:	3001      	adds	r0, #1
     dea:	9003      	str	r0, [sp, #12]
     dec:	9802      	ldr	r0, [sp, #8]
     dee:	f44f 7100 	mov.w	r1, #512	; 0x200
     df2:	2200      	movs	r2, #0
     df4:	f000 feda 	bl	1bac <__aeabi_memset>
     df8:	b9fd      	cbnz	r5, e3a <main+0xd6e>
     dfa:	4630      	mov	r0, r6
     dfc:	2177      	movs	r1, #119	; 0x77
     dfe:	f000 fd37 	bl	1870 <_ZN7drivers3lcd6c1233242C12332$LT$$x27a$C$$x20S$C$$x20T$GT$.CharIO4putc21h124160362025483059614v0.0E>
     e02:	4630      	mov	r0, r6
     e04:	2161      	movs	r1, #97	; 0x61
     e06:	f000 fd33 	bl	1870 <_ZN7drivers3lcd6c1233242C12332$LT$$x27a$C$$x20S$C$$x20T$GT$.CharIO4putc21h124160362025483059614v0.0E>
     e0a:	4630      	mov	r0, r6
     e0c:	2169      	movs	r1, #105	; 0x69
     e0e:	f000 fd2f 	bl	1870 <_ZN7drivers3lcd6c1233242C12332$LT$$x27a$C$$x20S$C$$x20T$GT$.CharIO4putc21h124160362025483059614v0.0E>
     e12:	4630      	mov	r0, r6
     e14:	2174      	movs	r1, #116	; 0x74
     e16:	f000 fd2b 	bl	1870 <_ZN7drivers3lcd6c1233242C12332$LT$$x27a$C$$x20S$C$$x20T$GT$.CharIO4putc21h124160362025483059614v0.0E>
     e1a:	4630      	mov	r0, r6
     e1c:	2169      	movs	r1, #105	; 0x69
     e1e:	f000 fd27 	bl	1870 <_ZN7drivers3lcd6c1233242C12332$LT$$x27a$C$$x20S$C$$x20T$GT$.CharIO4putc21h124160362025483059614v0.0E>
     e22:	4630      	mov	r0, r6
     e24:	216e      	movs	r1, #110	; 0x6e
     e26:	f000 fd23 	bl	1870 <_ZN7drivers3lcd6c1233242C12332$LT$$x27a$C$$x20S$C$$x20T$GT$.CharIO4putc21h124160362025483059614v0.0E>
     e2a:	4630      	mov	r0, r6
     e2c:	2167      	movs	r1, #103	; 0x67
     e2e:	f000 fd1f 	bl	1870 <_ZN7drivers3lcd6c1233242C12332$LT$$x27a$C$$x20S$C$$x20T$GT$.CharIO4putc21h124160362025483059614v0.0E>
     e32:	4630      	mov	r0, r6
     e34:	2120      	movs	r1, #32
     e36:	f000 fd1b 	bl	1870 <_ZN7drivers3lcd6c1233242C12332$LT$$x27a$C$$x20S$C$$x20T$GT$.CharIO4putc21h124160362025483059614v0.0E>
     e3a:	9803      	ldr	r0, [sp, #12]
     e3c:	2200      	movs	r2, #0
     e3e:	9299      	str	r2, [sp, #612]	; 0x264
     e40:	9298      	str	r2, [sp, #608]	; 0x260
     e42:	9297      	str	r2, [sp, #604]	; 0x25c
     e44:	9296      	str	r2, [sp, #600]	; 0x258
     e46:	9295      	str	r2, [sp, #596]	; 0x254
     e48:	9294      	str	r2, [sp, #592]	; 0x250
     e4a:	9293      	str	r2, [sp, #588]	; 0x24c
     e4c:	9292      	str	r2, [sp, #584]	; 0x248
     e4e:	2800      	cmp	r0, #0
     e50:	d067      	beq.n	f22 <main+0xe56>
     e52:	2a1f      	cmp	r2, #31
     e54:	f200 809d 	bhi.w	f92 <main+0xec6>
     e58:	fba0 130b 	umull	r1, r3, r0, fp
     e5c:	280a      	cmp	r0, #10
     e5e:	ea4f 01d3 	mov.w	r1, r3, lsr #3
     e62:	eb01 0381 	add.w	r3, r1, r1, lsl #2
     e66:	eba0 0343 	sub.w	r3, r0, r3, lsl #1
     e6a:	4608      	mov	r0, r1
     e6c:	f808 3002 	strb.w	r3, [r8, r2]
     e70:	f102 0201 	add.w	r2, r2, #1
     e74:	d2ed      	bcs.n	e52 <main+0xd86>
     e76:	3a01      	subs	r2, #1
     e78:	2300      	movs	r3, #0
     e7a:	2500      	movs	r5, #0
     e7c:	f1b2 3fff 	cmp.w	r2, #4294967295	; 0xffffffff
     e80:	dd53      	ble.n	f2a <main+0xe5e>
     e82:	2030      	movs	r0, #48	; 0x30
     e84:	2a1f      	cmp	r2, #31
     e86:	f8cd 0488 	str.w	r0, [sp, #1160]	; 0x488
     e8a:	f04f 0031 	mov.w	r0, #49	; 0x31
     e8e:	f8cd 048c 	str.w	r0, [sp, #1164]	; 0x48c
     e92:	f04f 0032 	mov.w	r0, #50	; 0x32
     e96:	f8cd 0490 	str.w	r0, [sp, #1168]	; 0x490
     e9a:	f04f 0033 	mov.w	r0, #51	; 0x33
     e9e:	f8cd 0494 	str.w	r0, [sp, #1172]	; 0x494
     ea2:	f04f 0034 	mov.w	r0, #52	; 0x34
     ea6:	f8cd 0498 	str.w	r0, [sp, #1176]	; 0x498
     eaa:	f04f 0035 	mov.w	r0, #53	; 0x35
     eae:	f8cd 049c 	str.w	r0, [sp, #1180]	; 0x49c
     eb2:	f04f 0036 	mov.w	r0, #54	; 0x36
     eb6:	f8cd 04a0 	str.w	r0, [sp, #1184]	; 0x4a0
     eba:	f04f 0037 	mov.w	r0, #55	; 0x37
     ebe:	f8cd 04a4 	str.w	r0, [sp, #1188]	; 0x4a4
     ec2:	f04f 0038 	mov.w	r0, #56	; 0x38
     ec6:	f8cd 04a8 	str.w	r0, [sp, #1192]	; 0x4a8
     eca:	f04f 0039 	mov.w	r0, #57	; 0x39
     ece:	f8cd 04ac 	str.w	r0, [sp, #1196]	; 0x4ac
     ed2:	f04f 0061 	mov.w	r0, #97	; 0x61
     ed6:	f8cd 04b0 	str.w	r0, [sp, #1200]	; 0x4b0
     eda:	f04f 0062 	mov.w	r0, #98	; 0x62
     ede:	f8cd 04b4 	str.w	r0, [sp, #1204]	; 0x4b4
     ee2:	f04f 0063 	mov.w	r0, #99	; 0x63
     ee6:	f8cd 04b8 	str.w	r0, [sp, #1208]	; 0x4b8
     eea:	f04f 0064 	mov.w	r0, #100	; 0x64
     eee:	f8cd 04bc 	str.w	r0, [sp, #1212]	; 0x4bc
     ef2:	f04f 0065 	mov.w	r0, #101	; 0x65
     ef6:	f8cd 04c0 	str.w	r0, [sp, #1216]	; 0x4c0
     efa:	f8cd 94c4 	str.w	r9, [sp, #1220]	; 0x4c4
     efe:	d84e      	bhi.n	f9e <main+0xed2>
     f00:	f818 5002 	ldrb.w	r5, [r8, r2]
     f04:	2d0f      	cmp	r5, #15
     f06:	d850      	bhi.n	faa <main+0xede>
     f08:	2b20      	cmp	r3, #32
     f0a:	d255      	bcs.n	fb8 <main+0xeec>
     f0c:	f857 0025 	ldr.w	r0, [r7, r5, lsl #2]
     f10:	3a01      	subs	r2, #1
     f12:	2500      	movs	r5, #0
     f14:	f1b2 3fff 	cmp.w	r2, #4294967295	; 0xffffffff
     f18:	54e0      	strb	r0, [r4, r3]
     f1a:	f103 0301 	add.w	r3, r3, #1
     f1e:	dcb0      	bgt.n	e82 <main+0xdb6>
     f20:	e003      	b.n	f2a <main+0xe5e>
     f22:	2030      	movs	r0, #48	; 0x30
     f24:	2500      	movs	r5, #0
     f26:	f88d 0248 	strb.w	r0, [sp, #584]	; 0x248
     f2a:	5d61      	ldrb	r1, [r4, r5]
     f2c:	b129      	cbz	r1, f3a <main+0xe6e>
     f2e:	4630      	mov	r0, r6
     f30:	f000 fc9e 	bl	1870 <_ZN7drivers3lcd6c1233242C12332$LT$$x27a$C$$x20S$C$$x20T$GT$.CharIO4putc21h124160362025483059614v0.0E>
     f34:	3501      	adds	r5, #1
     f36:	2d20      	cmp	r5, #32
     f38:	d1f7      	bne.n	f2a <main+0xe5e>
     f3a:	2500      	movs	r5, #0
     f3c:	b9fd      	cbnz	r5, f7e <main+0xeb2>
     f3e:	4630      	mov	r0, r6
     f40:	2120      	movs	r1, #32
     f42:	f000 fc95 	bl	1870 <_ZN7drivers3lcd6c1233242C12332$LT$$x27a$C$$x20S$C$$x20T$GT$.CharIO4putc21h124160362025483059614v0.0E>
     f46:	4630      	mov	r0, r6
     f48:	2173      	movs	r1, #115	; 0x73
     f4a:	f000 fc91 	bl	1870 <_ZN7drivers3lcd6c1233242C12332$LT$$x27a$C$$x20S$C$$x20T$GT$.CharIO4putc21h124160362025483059614v0.0E>
     f4e:	4630      	mov	r0, r6
     f50:	2165      	movs	r1, #101	; 0x65
     f52:	f000 fc8d 	bl	1870 <_ZN7drivers3lcd6c1233242C12332$LT$$x27a$C$$x20S$C$$x20T$GT$.CharIO4putc21h124160362025483059614v0.0E>
     f56:	4630      	mov	r0, r6
     f58:	2163      	movs	r1, #99	; 0x63
     f5a:	f000 fc89 	bl	1870 <_ZN7drivers3lcd6c1233242C12332$LT$$x27a$C$$x20S$C$$x20T$GT$.CharIO4putc21h124160362025483059614v0.0E>
     f5e:	4630      	mov	r0, r6
     f60:	216f      	movs	r1, #111	; 0x6f
     f62:	f000 fc85 	bl	1870 <_ZN7drivers3lcd6c1233242C12332$LT$$x27a$C$$x20S$C$$x20T$GT$.CharIO4putc21h124160362025483059614v0.0E>
     f66:	4630      	mov	r0, r6
     f68:	216e      	movs	r1, #110	; 0x6e
     f6a:	f000 fc81 	bl	1870 <_ZN7drivers3lcd6c1233242C12332$LT$$x27a$C$$x20S$C$$x20T$GT$.CharIO4putc21h124160362025483059614v0.0E>
     f6e:	4630      	mov	r0, r6
     f70:	2164      	movs	r1, #100	; 0x64
     f72:	f000 fc7d 	bl	1870 <_ZN7drivers3lcd6c1233242C12332$LT$$x27a$C$$x20S$C$$x20T$GT$.CharIO4putc21h124160362025483059614v0.0E>
     f76:	4630      	mov	r0, r6
     f78:	2173      	movs	r1, #115	; 0x73
     f7a:	f000 fc79 	bl	1870 <_ZN7drivers3lcd6c1233242C12332$LT$$x27a$C$$x20S$C$$x20T$GT$.CharIO4putc21h124160362025483059614v0.0E>
     f7e:	4630      	mov	r0, r6
     f80:	f000 f882 	bl	1088 <_ZN7drivers3lcd6c1233239C12332$LT$$x27a$C$$x20S$C$$x20T$GT$.LCD5flush20h70005536228177459644v0.0E>
     f84:	9890      	ldr	r0, [sp, #576]	; 0x240
     f86:	6881      	ldr	r1, [r0, #8]
     f88:	6882      	ldr	r2, [r0, #8]
     f8a:	1a52      	subs	r2, r2, r1
     f8c:	4552      	cmp	r2, sl
     f8e:	d3fb      	bcc.n	f88 <main+0xebc>
     f90:	e729      	b.n	de6 <main+0xd1a>
     f92:	f50d 6099 	add.w	r0, sp, #1224	; 0x4c8
     f96:	2122      	movs	r1, #34	; 0x22
     f98:	2320      	movs	r3, #32
     f9a:	f000 fdd7 	bl	1b4c <_ZN7failure17fail_bounds_check20hed0620cacf201c820Xv11v0.11.0.preE>
     f9e:	f50d 6090 	add.w	r0, sp, #1152	; 0x480
     fa2:	212c      	movs	r1, #44	; 0x2c
     fa4:	2320      	movs	r3, #32
     fa6:	f000 fdd1 	bl	1b4c <_ZN7failure17fail_bounds_check20hed0620cacf201c820Xv11v0.11.0.preE>
     faa:	f50d 608f 	add.w	r0, sp, #1144	; 0x478
     fae:	212c      	movs	r1, #44	; 0x2c
     fb0:	462a      	mov	r2, r5
     fb2:	2310      	movs	r3, #16
     fb4:	f000 fdca 	bl	1b4c <_ZN7failure17fail_bounds_check20hed0620cacf201c820Xv11v0.11.0.preE>
     fb8:	461a      	mov	r2, r3
     fba:	f50d 608e 	add.w	r0, sp, #1136	; 0x470
     fbe:	212e      	movs	r1, #46	; 0x2e
     fc0:	2320      	movs	r3, #32
     fc2:	f000 fdc3 	bl	1b4c <_ZN7failure17fail_bounds_check20hed0620cacf201c820Xv11v0.11.0.preE>
     fc6:	defedefe 	mrcle	14, 7, sp, cr14, cr14, {7}
     fca:	defedefe 	mrcle	14, 7, sp, cr14, cr14, {7}
     fce:	defedefe 	mrcle	14, 7, sp, cr14, cr14, {7}
     fd2:	defedefe 	mrcle	14, 7, sp, cr14, cr14, {7}
     fd6:	defedefe 	mrcle	14, 7, sp, cr14, cr14, {7}
	...

00000fdc <__morestack>:
     fdc:	4668      	mov	r0, sp
     fde:	f3ef 8109 	mrs	r1, PSP
     fe2:	4281      	cmp	r1, r0
     fe4:	bf01      	itttt	eq
     fe6:	f641 3009 	movweq	r0, #6921	; 0x1b09
     fea:	f2c0 0000 	movteq	r0, #0
     fee:	2100      	moveq	r1, #0
     ff0:	f000 be18 	beq.w	1c24 <syscall>
     ff4:	0000defe 	strdeq	sp, [r0], -lr

00000ff8 <task_scheduler>:
     ff8:	e92d 4800 	stmdb	sp!, {fp, lr}
     ffc:	b082      	sub	sp, #8
     ffe:	f240 0e00 	movw	lr, #0
    1002:	f242 0000 	movw	r0, #8192	; 0x2000
    1006:	f240 0c38 	movw	ip, #56	; 0x38
    100a:	f2c1 0e00 	movt	lr, #4096	; 0x1000
    100e:	f2c1 0000 	movt	r0, #4096	; 0x1000
    1012:	f2c1 0c00 	movt	ip, #4096	; 0x1000
    1016:	f8de 2000 	ldr.w	r2, [lr]
    101a:	f5a0 7080 	sub.w	r0, r0, #256	; 0x100
    101e:	f8cc 0000 	str.w	r0, [ip]
    1022:	2a04      	cmp	r2, #4
    1024:	d22a      	bcs.n	107c <task_scheduler+0x84>
    1026:	eb02 0042 	add.w	r0, r2, r2, lsl #1
    102a:	f3ef 8109 	mrs	r1, PSP
    102e:	eb0e 0080 	add.w	r0, lr, r0, lsl #2
    1032:	6041      	str	r1, [r0, #4]
    1034:	f8de 0000 	ldr.w	r0, [lr]
    1038:	eb00 0140 	add.w	r1, r0, r0, lsl #1
    103c:	1c42      	adds	r2, r0, #1
    103e:	eb0e 0181 	add.w	r1, lr, r1, lsl #2
    1042:	f101 0318 	add.w	r3, r1, #24
    1046:	f8ce 2000 	str.w	r2, [lr]
    104a:	2a04      	cmp	r2, #4
    104c:	d216      	bcs.n	107c <task_scheduler+0x84>
    104e:	f853 1c04 	ldr.w	r1, [r3, #-4]
    1052:	f103 000c 	add.w	r0, r3, #12
    1056:	781b      	ldrb	r3, [r3, #0]
    1058:	3201      	adds	r2, #1
    105a:	2b00      	cmp	r3, #0
    105c:	4603      	mov	r3, r0
    105e:	d1f2      	bne.n	1046 <task_scheduler+0x4e>
    1060:	4603      	mov	r3, r0
    1062:	2900      	cmp	r1, #0
    1064:	d0ef      	beq.n	1046 <task_scheduler+0x4e>
    1066:	f850 1c14 	ldr.w	r1, [r0, #-20]
    106a:	f850 0c10 	ldr.w	r0, [r0, #-16]
    106e:	f381 8809 	msr	PSP, r1
    1072:	f8cc 0000 	str.w	r0, [ip]
    1076:	b002      	add	sp, #8
    1078:	e8bd 8800 	ldmia.w	sp!, {fp, pc}
    107c:	4668      	mov	r0, sp
    107e:	2164      	movs	r1, #100	; 0x64
    1080:	2304      	movs	r3, #4
    1082:	f000 fd63 	bl	1b4c <_ZN7failure17fail_bounds_check20hed0620cacf201c820Xv11v0.11.0.preE>
	...

00001088 <_ZN7drivers3lcd6c1233239C12332$LT$$x27a$C$$x20S$C$$x20T$GT$.LCD5flush20h70005536228177459644v0.0E>:
    1088:	b430      	push	{r4, r5}
    108a:	ee1d 4f70 	mrc	15, 0, r4, cr13, cr0, {3}
    108e:	466d      	mov	r5, sp
    1090:	e594      	b.n	bbc <main+0xaf0>
    1092:	4004      	ands	r4, r0
    1094:	42ac      	cmp	r4, r5
    1096:	d308      	bcc.n	10aa <_ZN7drivers3lcd6c1233239C12332$LT$$x27a$C$$x20S$C$$x20T$GT$.LCD5flush20h70005536228177459644v0.0E+0x22>
    1098:	2410      	movs	r4, #16
    109a:	2500      	movs	r5, #0
    109c:	b500      	push	{lr}
    109e:	f7ff ff9d 	bl	fdc <__morestack>
    10a2:	f85d eb04 	ldr.w	lr, [sp], #4
    10a6:	bc30      	pop	{r4, r5}
    10a8:	4770      	bx	lr
    10aa:	bc30      	pop	{r4, r5}
    10ac:	b570      	push	{r4, r5, r6, lr}
    10ae:	7a01      	ldrb	r1, [r0, #8]
    10b0:	2903      	cmp	r1, #3
    10b2:	d806      	bhi.n	10c2 <_ZN7drivers3lcd6c1233239C12332$LT$$x27a$C$$x20S$C$$x20T$GT$.LCD5flush20h70005536228177459644v0.0E+0x3a>
    10b4:	f642 0294 	movw	r2, #10388	; 0x2894
    10b8:	f2c0 0200 	movt	r2, #0
    10bc:	f852 2021 	ldr.w	r2, [r2, r1, lsl #2]
    10c0:	e003      	b.n	10ca <_ZN7drivers3lcd6c1233239C12332$LT$$x27a$C$$x20S$C$$x20T$GT$.LCD5flush20h70005536228177459644v0.0E+0x42>
    10c2:	f24c 0280 	movw	r2, #49280	; 0xc080
    10c6:	f2c2 0209 	movt	r2, #8201	; 0x2009
    10ca:	7a43      	ldrb	r3, [r0, #9]
    10cc:	2101      	movs	r1, #1
    10ce:	fa01 f303 	lsl.w	r3, r1, r3
    10d2:	61d3      	str	r3, [r2, #28]
    10d4:	7b02      	ldrb	r2, [r0, #12]
    10d6:	2a03      	cmp	r2, #3
    10d8:	d806      	bhi.n	10e8 <_ZN7drivers3lcd6c1233239C12332$LT$$x27a$C$$x20S$C$$x20T$GT$.LCD5flush20h70005536228177459644v0.0E+0x60>
    10da:	f642 0394 	movw	r3, #10388	; 0x2894
    10de:	f2c0 0300 	movt	r3, #0
    10e2:	f853 2022 	ldr.w	r2, [r3, r2, lsl #2]
    10e6:	e003      	b.n	10f0 <_ZN7drivers3lcd6c1233239C12332$LT$$x27a$C$$x20S$C$$x20T$GT$.LCD5flush20h70005536228177459644v0.0E+0x68>
    10e8:	f24c 0280 	movw	r2, #49280	; 0xc080
    10ec:	f2c2 0209 	movt	r2, #8201	; 0x2009
    10f0:	7b43      	ldrb	r3, [r0, #13]
    10f2:	4099      	lsls	r1, r3
    10f4:	61d1      	str	r1, [r2, #28]
    10f6:	6801      	ldr	r1, [r0, #0]
    10f8:	684a      	ldr	r2, [r1, #4]
    10fa:	68d3      	ldr	r3, [r2, #12]
    10fc:	f013 0f02 	tst.w	r3, #2
    1100:	d0fb      	beq.n	10fa <_ZN7drivers3lcd6c1233239C12332$LT$$x27a$C$$x20S$C$$x20T$GT$.LCD5flush20h70005536228177459644v0.0E+0x72>
    1102:	2300      	movs	r3, #0
    1104:	6093      	str	r3, [r2, #8]
    1106:	6849      	ldr	r1, [r1, #4]
    1108:	68ca      	ldr	r2, [r1, #12]
    110a:	f012 0f10 	tst.w	r2, #16
    110e:	d1fb      	bne.n	1108 <_ZN7drivers3lcd6c1233239C12332$LT$$x27a$C$$x20S$C$$x20T$GT$.LCD5flush20h70005536228177459644v0.0E+0x80>
    1110:	7b01      	ldrb	r1, [r0, #12]
    1112:	2903      	cmp	r1, #3
    1114:	d806      	bhi.n	1124 <_ZN7drivers3lcd6c1233239C12332$LT$$x27a$C$$x20S$C$$x20T$GT$.LCD5flush20h70005536228177459644v0.0E+0x9c>
    1116:	f642 0294 	movw	r2, #10388	; 0x2894
    111a:	f2c0 0200 	movt	r2, #0
    111e:	f852 2021 	ldr.w	r2, [r2, r1, lsl #2]
    1122:	e003      	b.n	112c <_ZN7drivers3lcd6c1233239C12332$LT$$x27a$C$$x20S$C$$x20T$GT$.LCD5flush20h70005536228177459644v0.0E+0xa4>
    1124:	f24c 0280 	movw	r2, #49280	; 0xc080
    1128:	f2c2 0209 	movt	r2, #8201	; 0x2009
    112c:	7b43      	ldrb	r3, [r0, #13]
    112e:	2101      	movs	r1, #1
    1130:	fa01 f303 	lsl.w	r3, r1, r3
    1134:	6193      	str	r3, [r2, #24]
    1136:	7a02      	ldrb	r2, [r0, #8]
    1138:	2a03      	cmp	r2, #3
    113a:	d806      	bhi.n	114a <_ZN7drivers3lcd6c1233239C12332$LT$$x27a$C$$x20S$C$$x20T$GT$.LCD5flush20h70005536228177459644v0.0E+0xc2>
    113c:	f642 0394 	movw	r3, #10388	; 0x2894
    1140:	f2c0 0300 	movt	r3, #0
    1144:	f853 2022 	ldr.w	r2, [r3, r2, lsl #2]
    1148:	e003      	b.n	1152 <_ZN7drivers3lcd6c1233239C12332$LT$$x27a$C$$x20S$C$$x20T$GT$.LCD5flush20h70005536228177459644v0.0E+0xca>
    114a:	f24c 0280 	movw	r2, #49280	; 0xc080
    114e:	f2c2 0209 	movt	r2, #8201	; 0x2009
    1152:	7a43      	ldrb	r3, [r0, #9]
    1154:	4099      	lsls	r1, r3
    1156:	61d1      	str	r1, [r2, #28]
    1158:	7b01      	ldrb	r1, [r0, #12]
    115a:	2903      	cmp	r1, #3
    115c:	d806      	bhi.n	116c <_ZN7drivers3lcd6c1233239C12332$LT$$x27a$C$$x20S$C$$x20T$GT$.LCD5flush20h70005536228177459644v0.0E+0xe4>
    115e:	f642 0294 	movw	r2, #10388	; 0x2894
    1162:	f2c0 0200 	movt	r2, #0
    1166:	f852 1021 	ldr.w	r1, [r2, r1, lsl #2]
    116a:	e003      	b.n	1174 <_ZN7drivers3lcd6c1233239C12332$LT$$x27a$C$$x20S$C$$x20T$GT$.LCD5flush20h70005536228177459644v0.0E+0xec>
    116c:	f24c 0180 	movw	r1, #49280	; 0xc080
    1170:	f2c2 0109 	movt	r1, #8201	; 0x2009
    1174:	7b42      	ldrb	r2, [r0, #13]
    1176:	2301      	movs	r3, #1
    1178:	fa03 f202 	lsl.w	r2, r3, r2
    117c:	61ca      	str	r2, [r1, #28]
    117e:	6801      	ldr	r1, [r0, #0]
    1180:	684a      	ldr	r2, [r1, #4]
    1182:	68d3      	ldr	r3, [r2, #12]
    1184:	f013 0f02 	tst.w	r3, #2
    1188:	d0fb      	beq.n	1182 <_ZN7drivers3lcd6c1233239C12332$LT$$x27a$C$$x20S$C$$x20T$GT$.LCD5flush20h70005536228177459644v0.0E+0xfa>
    118a:	2310      	movs	r3, #16
    118c:	6093      	str	r3, [r2, #8]
    118e:	6849      	ldr	r1, [r1, #4]
    1190:	68ca      	ldr	r2, [r1, #12]
    1192:	f012 0f10 	tst.w	r2, #16
    1196:	d1fb      	bne.n	1190 <_ZN7drivers3lcd6c1233239C12332$LT$$x27a$C$$x20S$C$$x20T$GT$.LCD5flush20h70005536228177459644v0.0E+0x108>
    1198:	7b01      	ldrb	r1, [r0, #12]
    119a:	2903      	cmp	r1, #3
    119c:	d806      	bhi.n	11ac <_ZN7drivers3lcd6c1233239C12332$LT$$x27a$C$$x20S$C$$x20T$GT$.LCD5flush20h70005536228177459644v0.0E+0x124>
    119e:	f642 0294 	movw	r2, #10388	; 0x2894
    11a2:	f2c0 0200 	movt	r2, #0
    11a6:	f852 2021 	ldr.w	r2, [r2, r1, lsl #2]
    11aa:	e003      	b.n	11b4 <_ZN7drivers3lcd6c1233239C12332$LT$$x27a$C$$x20S$C$$x20T$GT$.LCD5flush20h70005536228177459644v0.0E+0x12c>
    11ac:	f24c 0280 	movw	r2, #49280	; 0xc080
    11b0:	f2c2 0209 	movt	r2, #8201	; 0x2009
    11b4:	7b43      	ldrb	r3, [r0, #13]
    11b6:	2101      	movs	r1, #1
    11b8:	fa01 f303 	lsl.w	r3, r1, r3
    11bc:	6193      	str	r3, [r2, #24]
    11be:	7a02      	ldrb	r2, [r0, #8]
    11c0:	2a03      	cmp	r2, #3
    11c2:	d806      	bhi.n	11d2 <_ZN7drivers3lcd6c1233239C12332$LT$$x27a$C$$x20S$C$$x20T$GT$.LCD5flush20h70005536228177459644v0.0E+0x14a>
    11c4:	f642 0394 	movw	r3, #10388	; 0x2894
    11c8:	f2c0 0300 	movt	r3, #0
    11cc:	f853 2022 	ldr.w	r2, [r3, r2, lsl #2]
    11d0:	e003      	b.n	11da <_ZN7drivers3lcd6c1233239C12332$LT$$x27a$C$$x20S$C$$x20T$GT$.LCD5flush20h70005536228177459644v0.0E+0x152>
    11d2:	f24c 0280 	movw	r2, #49280	; 0xc080
    11d6:	f2c2 0209 	movt	r2, #8201	; 0x2009
    11da:	7a43      	ldrb	r3, [r0, #9]
    11dc:	4099      	lsls	r1, r3
    11de:	61d1      	str	r1, [r2, #28]
    11e0:	7b01      	ldrb	r1, [r0, #12]
    11e2:	2903      	cmp	r1, #3
    11e4:	d806      	bhi.n	11f4 <_ZN7drivers3lcd6c1233239C12332$LT$$x27a$C$$x20S$C$$x20T$GT$.LCD5flush20h70005536228177459644v0.0E+0x16c>
    11e6:	f642 0294 	movw	r2, #10388	; 0x2894
    11ea:	f2c0 0200 	movt	r2, #0
    11ee:	f852 1021 	ldr.w	r1, [r2, r1, lsl #2]
    11f2:	e003      	b.n	11fc <_ZN7drivers3lcd6c1233239C12332$LT$$x27a$C$$x20S$C$$x20T$GT$.LCD5flush20h70005536228177459644v0.0E+0x174>
    11f4:	f24c 0180 	movw	r1, #49280	; 0xc080
    11f8:	f2c2 0109 	movt	r1, #8201	; 0x2009
    11fc:	7b42      	ldrb	r2, [r0, #13]
    11fe:	2301      	movs	r3, #1
    1200:	fa03 f202 	lsl.w	r2, r3, r2
    1204:	61ca      	str	r2, [r1, #28]
    1206:	6801      	ldr	r1, [r0, #0]
    1208:	684a      	ldr	r2, [r1, #4]
    120a:	68d3      	ldr	r3, [r2, #12]
    120c:	f013 0f02 	tst.w	r3, #2
    1210:	d0fb      	beq.n	120a <_ZN7drivers3lcd6c1233239C12332$LT$$x27a$C$$x20S$C$$x20T$GT$.LCD5flush20h70005536228177459644v0.0E+0x182>
    1212:	23b0      	movs	r3, #176	; 0xb0
    1214:	6093      	str	r3, [r2, #8]
    1216:	6849      	ldr	r1, [r1, #4]
    1218:	68ca      	ldr	r2, [r1, #12]
    121a:	f012 0f10 	tst.w	r2, #16
    121e:	d1fb      	bne.n	1218 <_ZN7drivers3lcd6c1233239C12332$LT$$x27a$C$$x20S$C$$x20T$GT$.LCD5flush20h70005536228177459644v0.0E+0x190>
    1220:	7b01      	ldrb	r1, [r0, #12]
    1222:	2903      	cmp	r1, #3
    1224:	d806      	bhi.n	1234 <_ZN7drivers3lcd6c1233239C12332$LT$$x27a$C$$x20S$C$$x20T$GT$.LCD5flush20h70005536228177459644v0.0E+0x1ac>
    1226:	f642 0294 	movw	r2, #10388	; 0x2894
    122a:	f2c0 0200 	movt	r2, #0
    122e:	f852 1021 	ldr.w	r1, [r2, r1, lsl #2]
    1232:	e003      	b.n	123c <_ZN7drivers3lcd6c1233239C12332$LT$$x27a$C$$x20S$C$$x20T$GT$.LCD5flush20h70005536228177459644v0.0E+0x1b4>
    1234:	f24c 0180 	movw	r1, #49280	; 0xc080
    1238:	f2c2 0109 	movt	r1, #8201	; 0x2009
    123c:	7b42      	ldrb	r2, [r0, #13]
    123e:	f04f 0e01 	mov.w	lr, #1
    1242:	fa0e f202 	lsl.w	r2, lr, r2
    1246:	618a      	str	r2, [r1, #24]
    1248:	7a01      	ldrb	r1, [r0, #8]
    124a:	2903      	cmp	r1, #3
    124c:	d806      	bhi.n	125c <_ZN7drivers3lcd6c1233239C12332$LT$$x27a$C$$x20S$C$$x20T$GT$.LCD5flush20h70005536228177459644v0.0E+0x1d4>
    124e:	f642 0294 	movw	r2, #10388	; 0x2894
    1252:	f2c0 0200 	movt	r2, #0
    1256:	f852 1021 	ldr.w	r1, [r2, r1, lsl #2]
    125a:	e003      	b.n	1264 <_ZN7drivers3lcd6c1233239C12332$LT$$x27a$C$$x20S$C$$x20T$GT$.LCD5flush20h70005536228177459644v0.0E+0x1dc>
    125c:	f24c 0180 	movw	r1, #49280	; 0xc080
    1260:	f2c2 0109 	movt	r1, #8201	; 0x2009
    1264:	7a42      	ldrb	r2, [r0, #9]
    1266:	f642 0c94 	movw	ip, #10388	; 0x2894
    126a:	2300      	movs	r3, #0
    126c:	f2c0 0c00 	movt	ip, #0
    1270:	fa0e f202 	lsl.w	r2, lr, r2
    1274:	618a      	str	r2, [r1, #24]
    1276:	f24c 0180 	movw	r1, #49280	; 0xc080
    127a:	f2c2 0109 	movt	r1, #8201	; 0x2009
    127e:	7a05      	ldrb	r5, [r0, #8]
    1280:	18c2      	adds	r2, r0, r3
    1282:	460c      	mov	r4, r1
    1284:	7d12      	ldrb	r2, [r2, #20]
    1286:	2d03      	cmp	r5, #3
    1288:	bf98      	it	ls
    128a:	f85c 4025 	ldrls.w	r4, [ip, r5, lsl #2]
    128e:	7a45      	ldrb	r5, [r0, #9]
    1290:	fa0e f505 	lsl.w	r5, lr, r5
    1294:	61a5      	str	r5, [r4, #24]
    1296:	460c      	mov	r4, r1
    1298:	7b05      	ldrb	r5, [r0, #12]
    129a:	2d03      	cmp	r5, #3
    129c:	bf98      	it	ls
    129e:	f85c 4025 	ldrls.w	r4, [ip, r5, lsl #2]
    12a2:	7b45      	ldrb	r5, [r0, #13]
    12a4:	fa0e f505 	lsl.w	r5, lr, r5
    12a8:	61e5      	str	r5, [r4, #28]
    12aa:	6804      	ldr	r4, [r0, #0]
    12ac:	6865      	ldr	r5, [r4, #4]
    12ae:	68ee      	ldr	r6, [r5, #12]
    12b0:	f016 0f02 	tst.w	r6, #2
    12b4:	d0fb      	beq.n	12ae <_ZN7drivers3lcd6c1233239C12332$LT$$x27a$C$$x20S$C$$x20T$GT$.LCD5flush20h70005536228177459644v0.0E+0x226>
    12b6:	60aa      	str	r2, [r5, #8]
    12b8:	6862      	ldr	r2, [r4, #4]
    12ba:	68d4      	ldr	r4, [r2, #12]
    12bc:	f014 0f10 	tst.w	r4, #16
    12c0:	d1fb      	bne.n	12ba <_ZN7drivers3lcd6c1233239C12332$LT$$x27a$C$$x20S$C$$x20T$GT$.LCD5flush20h70005536228177459644v0.0E+0x232>
    12c2:	7b04      	ldrb	r4, [r0, #12]
    12c4:	460a      	mov	r2, r1
    12c6:	3301      	adds	r3, #1
    12c8:	2c03      	cmp	r4, #3
    12ca:	bf98      	it	ls
    12cc:	f85c 2024 	ldrls.w	r2, [ip, r4, lsl #2]
    12d0:	7b44      	ldrb	r4, [r0, #13]
    12d2:	2b80      	cmp	r3, #128	; 0x80
    12d4:	fa0e f404 	lsl.w	r4, lr, r4
    12d8:	6194      	str	r4, [r2, #24]
    12da:	d1d0      	bne.n	127e <_ZN7drivers3lcd6c1233239C12332$LT$$x27a$C$$x20S$C$$x20T$GT$.LCD5flush20h70005536228177459644v0.0E+0x1f6>
    12dc:	7a01      	ldrb	r1, [r0, #8]
    12de:	2903      	cmp	r1, #3
    12e0:	d802      	bhi.n	12e8 <_ZN7drivers3lcd6c1233239C12332$LT$$x27a$C$$x20S$C$$x20T$GT$.LCD5flush20h70005536228177459644v0.0E+0x260>
    12e2:	f85c 2021 	ldr.w	r2, [ip, r1, lsl #2]
    12e6:	e003      	b.n	12f0 <_ZN7drivers3lcd6c1233239C12332$LT$$x27a$C$$x20S$C$$x20T$GT$.LCD5flush20h70005536228177459644v0.0E+0x268>
    12e8:	f24c 0280 	movw	r2, #49280	; 0xc080
    12ec:	f2c2 0209 	movt	r2, #8201	; 0x2009
    12f0:	7a43      	ldrb	r3, [r0, #9]
    12f2:	2101      	movs	r1, #1
    12f4:	fa01 f303 	lsl.w	r3, r1, r3
    12f8:	61d3      	str	r3, [r2, #28]
    12fa:	7b02      	ldrb	r2, [r0, #12]
    12fc:	2a03      	cmp	r2, #3
    12fe:	d802      	bhi.n	1306 <_ZN7drivers3lcd6c1233239C12332$LT$$x27a$C$$x20S$C$$x20T$GT$.LCD5flush20h70005536228177459644v0.0E+0x27e>
    1300:	f85c 2022 	ldr.w	r2, [ip, r2, lsl #2]
    1304:	e003      	b.n	130e <_ZN7drivers3lcd6c1233239C12332$LT$$x27a$C$$x20S$C$$x20T$GT$.LCD5flush20h70005536228177459644v0.0E+0x286>
    1306:	f24c 0280 	movw	r2, #49280	; 0xc080
    130a:	f2c2 0209 	movt	r2, #8201	; 0x2009
    130e:	7b43      	ldrb	r3, [r0, #13]
    1310:	4099      	lsls	r1, r3
    1312:	61d1      	str	r1, [r2, #28]
    1314:	6801      	ldr	r1, [r0, #0]
    1316:	684a      	ldr	r2, [r1, #4]
    1318:	68d3      	ldr	r3, [r2, #12]
    131a:	f013 0f02 	tst.w	r3, #2
    131e:	d0fb      	beq.n	1318 <_ZN7drivers3lcd6c1233239C12332$LT$$x27a$C$$x20S$C$$x20T$GT$.LCD5flush20h70005536228177459644v0.0E+0x290>
    1320:	2300      	movs	r3, #0
    1322:	6093      	str	r3, [r2, #8]
    1324:	6849      	ldr	r1, [r1, #4]
    1326:	68ca      	ldr	r2, [r1, #12]
    1328:	f012 0f10 	tst.w	r2, #16
    132c:	d1fb      	bne.n	1326 <_ZN7drivers3lcd6c1233239C12332$LT$$x27a$C$$x20S$C$$x20T$GT$.LCD5flush20h70005536228177459644v0.0E+0x29e>
    132e:	7b01      	ldrb	r1, [r0, #12]
    1330:	2903      	cmp	r1, #3
    1332:	d802      	bhi.n	133a <_ZN7drivers3lcd6c1233239C12332$LT$$x27a$C$$x20S$C$$x20T$GT$.LCD5flush20h70005536228177459644v0.0E+0x2b2>
    1334:	f85c 2021 	ldr.w	r2, [ip, r1, lsl #2]
    1338:	e003      	b.n	1342 <_ZN7drivers3lcd6c1233239C12332$LT$$x27a$C$$x20S$C$$x20T$GT$.LCD5flush20h70005536228177459644v0.0E+0x2ba>
    133a:	f24c 0280 	movw	r2, #49280	; 0xc080
    133e:	f2c2 0209 	movt	r2, #8201	; 0x2009
    1342:	7b43      	ldrb	r3, [r0, #13]
    1344:	2101      	movs	r1, #1
    1346:	fa01 f303 	lsl.w	r3, r1, r3
    134a:	6193      	str	r3, [r2, #24]
    134c:	7a02      	ldrb	r2, [r0, #8]
    134e:	2a03      	cmp	r2, #3
    1350:	d802      	bhi.n	1358 <_ZN7drivers3lcd6c1233239C12332$LT$$x27a$C$$x20S$C$$x20T$GT$.LCD5flush20h70005536228177459644v0.0E+0x2d0>
    1352:	f85c 2022 	ldr.w	r2, [ip, r2, lsl #2]
    1356:	e003      	b.n	1360 <_ZN7drivers3lcd6c1233239C12332$LT$$x27a$C$$x20S$C$$x20T$GT$.LCD5flush20h70005536228177459644v0.0E+0x2d8>
    1358:	f24c 0280 	movw	r2, #49280	; 0xc080
    135c:	f2c2 0209 	movt	r2, #8201	; 0x2009
    1360:	7a43      	ldrb	r3, [r0, #9]
    1362:	4099      	lsls	r1, r3
    1364:	61d1      	str	r1, [r2, #28]
    1366:	7b01      	ldrb	r1, [r0, #12]
    1368:	2903      	cmp	r1, #3
    136a:	d802      	bhi.n	1372 <_ZN7drivers3lcd6c1233239C12332$LT$$x27a$C$$x20S$C$$x20T$GT$.LCD5flush20h70005536228177459644v0.0E+0x2ea>
    136c:	f85c 1021 	ldr.w	r1, [ip, r1, lsl #2]
    1370:	e003      	b.n	137a <_ZN7drivers3lcd6c1233239C12332$LT$$x27a$C$$x20S$C$$x20T$GT$.LCD5flush20h70005536228177459644v0.0E+0x2f2>
    1372:	f24c 0180 	movw	r1, #49280	; 0xc080
    1376:	f2c2 0109 	movt	r1, #8201	; 0x2009
    137a:	7b42      	ldrb	r2, [r0, #13]
    137c:	2301      	movs	r3, #1
    137e:	fa03 f202 	lsl.w	r2, r3, r2
    1382:	61ca      	str	r2, [r1, #28]
    1384:	6801      	ldr	r1, [r0, #0]
    1386:	684a      	ldr	r2, [r1, #4]
    1388:	68d3      	ldr	r3, [r2, #12]
    138a:	f013 0f02 	tst.w	r3, #2
    138e:	d0fb      	beq.n	1388 <_ZN7drivers3lcd6c1233239C12332$LT$$x27a$C$$x20S$C$$x20T$GT$.LCD5flush20h70005536228177459644v0.0E+0x300>
    1390:	2310      	movs	r3, #16
    1392:	6093      	str	r3, [r2, #8]
    1394:	6849      	ldr	r1, [r1, #4]
    1396:	68ca      	ldr	r2, [r1, #12]
    1398:	f012 0f10 	tst.w	r2, #16
    139c:	d1fb      	bne.n	1396 <_ZN7drivers3lcd6c1233239C12332$LT$$x27a$C$$x20S$C$$x20T$GT$.LCD5flush20h70005536228177459644v0.0E+0x30e>
    139e:	7b01      	ldrb	r1, [r0, #12]
    13a0:	2903      	cmp	r1, #3
    13a2:	d802      	bhi.n	13aa <_ZN7drivers3lcd6c1233239C12332$LT$$x27a$C$$x20S$C$$x20T$GT$.LCD5flush20h70005536228177459644v0.0E+0x322>
    13a4:	f85c 2021 	ldr.w	r2, [ip, r1, lsl #2]
    13a8:	e003      	b.n	13b2 <_ZN7drivers3lcd6c1233239C12332$LT$$x27a$C$$x20S$C$$x20T$GT$.LCD5flush20h70005536228177459644v0.0E+0x32a>
    13aa:	f24c 0280 	movw	r2, #49280	; 0xc080
    13ae:	f2c2 0209 	movt	r2, #8201	; 0x2009
    13b2:	7b43      	ldrb	r3, [r0, #13]
    13b4:	2101      	movs	r1, #1
    13b6:	fa01 f303 	lsl.w	r3, r1, r3
    13ba:	6193      	str	r3, [r2, #24]
    13bc:	7a02      	ldrb	r2, [r0, #8]
    13be:	2a03      	cmp	r2, #3
    13c0:	d802      	bhi.n	13c8 <_ZN7drivers3lcd6c1233239C12332$LT$$x27a$C$$x20S$C$$x20T$GT$.LCD5flush20h70005536228177459644v0.0E+0x340>
    13c2:	f85c 2022 	ldr.w	r2, [ip, r2, lsl #2]
    13c6:	e003      	b.n	13d0 <_ZN7drivers3lcd6c1233239C12332$LT$$x27a$C$$x20S$C$$x20T$GT$.LCD5flush20h70005536228177459644v0.0E+0x348>
    13c8:	f24c 0280 	movw	r2, #49280	; 0xc080
    13cc:	f2c2 0209 	movt	r2, #8201	; 0x2009
    13d0:	7a43      	ldrb	r3, [r0, #9]
    13d2:	4099      	lsls	r1, r3
    13d4:	61d1      	str	r1, [r2, #28]
    13d6:	7b01      	ldrb	r1, [r0, #12]
    13d8:	2903      	cmp	r1, #3
    13da:	d802      	bhi.n	13e2 <_ZN7drivers3lcd6c1233239C12332$LT$$x27a$C$$x20S$C$$x20T$GT$.LCD5flush20h70005536228177459644v0.0E+0x35a>
    13dc:	f85c 1021 	ldr.w	r1, [ip, r1, lsl #2]
    13e0:	e003      	b.n	13ea <_ZN7drivers3lcd6c1233239C12332$LT$$x27a$C$$x20S$C$$x20T$GT$.LCD5flush20h70005536228177459644v0.0E+0x362>
    13e2:	f24c 0180 	movw	r1, #49280	; 0xc080
    13e6:	f2c2 0109 	movt	r1, #8201	; 0x2009
    13ea:	7b42      	ldrb	r2, [r0, #13]
    13ec:	2301      	movs	r3, #1
    13ee:	fa03 f202 	lsl.w	r2, r3, r2
    13f2:	61ca      	str	r2, [r1, #28]
    13f4:	6801      	ldr	r1, [r0, #0]
    13f6:	684a      	ldr	r2, [r1, #4]
    13f8:	68d3      	ldr	r3, [r2, #12]
    13fa:	f013 0f02 	tst.w	r3, #2
    13fe:	d0fb      	beq.n	13f8 <_ZN7drivers3lcd6c1233239C12332$LT$$x27a$C$$x20S$C$$x20T$GT$.LCD5flush20h70005536228177459644v0.0E+0x370>
    1400:	23b1      	movs	r3, #177	; 0xb1
    1402:	6093      	str	r3, [r2, #8]
    1404:	6849      	ldr	r1, [r1, #4]
    1406:	68ca      	ldr	r2, [r1, #12]
    1408:	f012 0f10 	tst.w	r2, #16
    140c:	d1fb      	bne.n	1406 <_ZN7drivers3lcd6c1233239C12332$LT$$x27a$C$$x20S$C$$x20T$GT$.LCD5flush20h70005536228177459644v0.0E+0x37e>
    140e:	7b01      	ldrb	r1, [r0, #12]
    1410:	2903      	cmp	r1, #3
    1412:	d802      	bhi.n	141a <_ZN7drivers3lcd6c1233239C12332$LT$$x27a$C$$x20S$C$$x20T$GT$.LCD5flush20h70005536228177459644v0.0E+0x392>
    1414:	f85c 1021 	ldr.w	r1, [ip, r1, lsl #2]
    1418:	e003      	b.n	1422 <_ZN7drivers3lcd6c1233239C12332$LT$$x27a$C$$x20S$C$$x20T$GT$.LCD5flush20h70005536228177459644v0.0E+0x39a>
    141a:	f24c 0180 	movw	r1, #49280	; 0xc080
    141e:	f2c2 0109 	movt	r1, #8201	; 0x2009
    1422:	7b42      	ldrb	r2, [r0, #13]
    1424:	f04f 0e01 	mov.w	lr, #1
    1428:	fa0e f202 	lsl.w	r2, lr, r2
    142c:	618a      	str	r2, [r1, #24]
    142e:	7a01      	ldrb	r1, [r0, #8]
    1430:	2903      	cmp	r1, #3
    1432:	d802      	bhi.n	143a <_ZN7drivers3lcd6c1233239C12332$LT$$x27a$C$$x20S$C$$x20T$GT$.LCD5flush20h70005536228177459644v0.0E+0x3b2>
    1434:	f85c 1021 	ldr.w	r1, [ip, r1, lsl #2]
    1438:	e003      	b.n	1442 <_ZN7drivers3lcd6c1233239C12332$LT$$x27a$C$$x20S$C$$x20T$GT$.LCD5flush20h70005536228177459644v0.0E+0x3ba>
    143a:	f24c 0180 	movw	r1, #49280	; 0xc080
    143e:	f2c2 0109 	movt	r1, #8201	; 0x2009
    1442:	7a42      	ldrb	r2, [r0, #9]
    1444:	2380      	movs	r3, #128	; 0x80
    1446:	fa0e f202 	lsl.w	r2, lr, r2
    144a:	618a      	str	r2, [r1, #24]
    144c:	f24c 0180 	movw	r1, #49280	; 0xc080
    1450:	f2c2 0109 	movt	r1, #8201	; 0x2009
    1454:	7a05      	ldrb	r5, [r0, #8]
    1456:	18c2      	adds	r2, r0, r3
    1458:	460c      	mov	r4, r1
    145a:	7d12      	ldrb	r2, [r2, #20]
    145c:	2d03      	cmp	r5, #3
    145e:	bf98      	it	ls
    1460:	f85c 4025 	ldrls.w	r4, [ip, r5, lsl #2]
    1464:	7a45      	ldrb	r5, [r0, #9]
    1466:	fa0e f505 	lsl.w	r5, lr, r5
    146a:	61a5      	str	r5, [r4, #24]
    146c:	460c      	mov	r4, r1
    146e:	7b05      	ldrb	r5, [r0, #12]
    1470:	2d03      	cmp	r5, #3
    1472:	bf98      	it	ls
    1474:	f85c 4025 	ldrls.w	r4, [ip, r5, lsl #2]
    1478:	7b45      	ldrb	r5, [r0, #13]
    147a:	fa0e f505 	lsl.w	r5, lr, r5
    147e:	61e5      	str	r5, [r4, #28]
    1480:	6804      	ldr	r4, [r0, #0]
    1482:	6865      	ldr	r5, [r4, #4]
    1484:	68ee      	ldr	r6, [r5, #12]
    1486:	f016 0f02 	tst.w	r6, #2
    148a:	d0fb      	beq.n	1484 <_ZN7drivers3lcd6c1233239C12332$LT$$x27a$C$$x20S$C$$x20T$GT$.LCD5flush20h70005536228177459644v0.0E+0x3fc>
    148c:	60aa      	str	r2, [r5, #8]
    148e:	6862      	ldr	r2, [r4, #4]
    1490:	68d4      	ldr	r4, [r2, #12]
    1492:	f014 0f10 	tst.w	r4, #16
    1496:	d1fb      	bne.n	1490 <_ZN7drivers3lcd6c1233239C12332$LT$$x27a$C$$x20S$C$$x20T$GT$.LCD5flush20h70005536228177459644v0.0E+0x408>
    1498:	7b04      	ldrb	r4, [r0, #12]
    149a:	460a      	mov	r2, r1
    149c:	3301      	adds	r3, #1
    149e:	2c03      	cmp	r4, #3
    14a0:	bf98      	it	ls
    14a2:	f85c 2024 	ldrls.w	r2, [ip, r4, lsl #2]
    14a6:	7b44      	ldrb	r4, [r0, #13]
    14a8:	f5b3 7f80 	cmp.w	r3, #256	; 0x100
    14ac:	fa0e f404 	lsl.w	r4, lr, r4
    14b0:	6194      	str	r4, [r2, #24]
    14b2:	d1cf      	bne.n	1454 <_ZN7drivers3lcd6c1233239C12332$LT$$x27a$C$$x20S$C$$x20T$GT$.LCD5flush20h70005536228177459644v0.0E+0x3cc>
    14b4:	7a01      	ldrb	r1, [r0, #8]
    14b6:	2903      	cmp	r1, #3
    14b8:	d802      	bhi.n	14c0 <_ZN7drivers3lcd6c1233239C12332$LT$$x27a$C$$x20S$C$$x20T$GT$.LCD5flush20h70005536228177459644v0.0E+0x438>
    14ba:	f85c 2021 	ldr.w	r2, [ip, r1, lsl #2]
    14be:	e003      	b.n	14c8 <_ZN7drivers3lcd6c1233239C12332$LT$$x27a$C$$x20S$C$$x20T$GT$.LCD5flush20h70005536228177459644v0.0E+0x440>
    14c0:	f24c 0280 	movw	r2, #49280	; 0xc080
    14c4:	f2c2 0209 	movt	r2, #8201	; 0x2009
    14c8:	7a43      	ldrb	r3, [r0, #9]
    14ca:	2101      	movs	r1, #1
    14cc:	fa01 f303 	lsl.w	r3, r1, r3
    14d0:	61d3      	str	r3, [r2, #28]
    14d2:	7b02      	ldrb	r2, [r0, #12]
    14d4:	2a03      	cmp	r2, #3
    14d6:	d802      	bhi.n	14de <_ZN7drivers3lcd6c1233239C12332$LT$$x27a$C$$x20S$C$$x20T$GT$.LCD5flush20h70005536228177459644v0.0E+0x456>
    14d8:	f85c 2022 	ldr.w	r2, [ip, r2, lsl #2]
    14dc:	e003      	b.n	14e6 <_ZN7drivers3lcd6c1233239C12332$LT$$x27a$C$$x20S$C$$x20T$GT$.LCD5flush20h70005536228177459644v0.0E+0x45e>
    14de:	f24c 0280 	movw	r2, #49280	; 0xc080
    14e2:	f2c2 0209 	movt	r2, #8201	; 0x2009
    14e6:	7b43      	ldrb	r3, [r0, #13]
    14e8:	4099      	lsls	r1, r3
    14ea:	61d1      	str	r1, [r2, #28]
    14ec:	6801      	ldr	r1, [r0, #0]
    14ee:	684a      	ldr	r2, [r1, #4]
    14f0:	68d3      	ldr	r3, [r2, #12]
    14f2:	f013 0f02 	tst.w	r3, #2
    14f6:	d0fb      	beq.n	14f0 <_ZN7drivers3lcd6c1233239C12332$LT$$x27a$C$$x20S$C$$x20T$GT$.LCD5flush20h70005536228177459644v0.0E+0x468>
    14f8:	2300      	movs	r3, #0
    14fa:	6093      	str	r3, [r2, #8]
    14fc:	6849      	ldr	r1, [r1, #4]
    14fe:	68ca      	ldr	r2, [r1, #12]
    1500:	f012 0f10 	tst.w	r2, #16
    1504:	d1fb      	bne.n	14fe <_ZN7drivers3lcd6c1233239C12332$LT$$x27a$C$$x20S$C$$x20T$GT$.LCD5flush20h70005536228177459644v0.0E+0x476>
    1506:	7b01      	ldrb	r1, [r0, #12]
    1508:	2903      	cmp	r1, #3
    150a:	d802      	bhi.n	1512 <_ZN7drivers3lcd6c1233239C12332$LT$$x27a$C$$x20S$C$$x20T$GT$.LCD5flush20h70005536228177459644v0.0E+0x48a>
    150c:	f85c 2021 	ldr.w	r2, [ip, r1, lsl #2]
    1510:	e003      	b.n	151a <_ZN7drivers3lcd6c1233239C12332$LT$$x27a$C$$x20S$C$$x20T$GT$.LCD5flush20h70005536228177459644v0.0E+0x492>
    1512:	f24c 0280 	movw	r2, #49280	; 0xc080
    1516:	f2c2 0209 	movt	r2, #8201	; 0x2009
    151a:	7b43      	ldrb	r3, [r0, #13]
    151c:	2101      	movs	r1, #1
    151e:	fa01 f303 	lsl.w	r3, r1, r3
    1522:	6193      	str	r3, [r2, #24]
    1524:	7a02      	ldrb	r2, [r0, #8]
    1526:	2a03      	cmp	r2, #3
    1528:	d802      	bhi.n	1530 <_ZN7drivers3lcd6c1233239C12332$LT$$x27a$C$$x20S$C$$x20T$GT$.LCD5flush20h70005536228177459644v0.0E+0x4a8>
    152a:	f85c 2022 	ldr.w	r2, [ip, r2, lsl #2]
    152e:	e003      	b.n	1538 <_ZN7drivers3lcd6c1233239C12332$LT$$x27a$C$$x20S$C$$x20T$GT$.LCD5flush20h70005536228177459644v0.0E+0x4b0>
    1530:	f24c 0280 	movw	r2, #49280	; 0xc080
    1534:	f2c2 0209 	movt	r2, #8201	; 0x2009
    1538:	7a43      	ldrb	r3, [r0, #9]
    153a:	4099      	lsls	r1, r3
    153c:	61d1      	str	r1, [r2, #28]
    153e:	7b01      	ldrb	r1, [r0, #12]
    1540:	2903      	cmp	r1, #3
    1542:	d802      	bhi.n	154a <_ZN7drivers3lcd6c1233239C12332$LT$$x27a$C$$x20S$C$$x20T$GT$.LCD5flush20h70005536228177459644v0.0E+0x4c2>
    1544:	f85c 1021 	ldr.w	r1, [ip, r1, lsl #2]
    1548:	e003      	b.n	1552 <_ZN7drivers3lcd6c1233239C12332$LT$$x27a$C$$x20S$C$$x20T$GT$.LCD5flush20h70005536228177459644v0.0E+0x4ca>
    154a:	f24c 0180 	movw	r1, #49280	; 0xc080
    154e:	f2c2 0109 	movt	r1, #8201	; 0x2009
    1552:	7b42      	ldrb	r2, [r0, #13]
    1554:	2301      	movs	r3, #1
    1556:	fa03 f202 	lsl.w	r2, r3, r2
    155a:	61ca      	str	r2, [r1, #28]
    155c:	6801      	ldr	r1, [r0, #0]
    155e:	684a      	ldr	r2, [r1, #4]
    1560:	68d3      	ldr	r3, [r2, #12]
    1562:	f013 0f02 	tst.w	r3, #2
    1566:	d0fb      	beq.n	1560 <_ZN7drivers3lcd6c1233239C12332$LT$$x27a$C$$x20S$C$$x20T$GT$.LCD5flush20h70005536228177459644v0.0E+0x4d8>
    1568:	2310      	movs	r3, #16
    156a:	6093      	str	r3, [r2, #8]
    156c:	6849      	ldr	r1, [r1, #4]
    156e:	68ca      	ldr	r2, [r1, #12]
    1570:	f012 0f10 	tst.w	r2, #16
    1574:	d1fb      	bne.n	156e <_ZN7drivers3lcd6c1233239C12332$LT$$x27a$C$$x20S$C$$x20T$GT$.LCD5flush20h70005536228177459644v0.0E+0x4e6>
    1576:	7b01      	ldrb	r1, [r0, #12]
    1578:	2903      	cmp	r1, #3
    157a:	d802      	bhi.n	1582 <_ZN7drivers3lcd6c1233239C12332$LT$$x27a$C$$x20S$C$$x20T$GT$.LCD5flush20h70005536228177459644v0.0E+0x4fa>
    157c:	f85c 2021 	ldr.w	r2, [ip, r1, lsl #2]
    1580:	e003      	b.n	158a <_ZN7drivers3lcd6c1233239C12332$LT$$x27a$C$$x20S$C$$x20T$GT$.LCD5flush20h70005536228177459644v0.0E+0x502>
    1582:	f24c 0280 	movw	r2, #49280	; 0xc080
    1586:	f2c2 0209 	movt	r2, #8201	; 0x2009
    158a:	7b43      	ldrb	r3, [r0, #13]
    158c:	2101      	movs	r1, #1
    158e:	fa01 f303 	lsl.w	r3, r1, r3
    1592:	6193      	str	r3, [r2, #24]
    1594:	7a02      	ldrb	r2, [r0, #8]
    1596:	2a03      	cmp	r2, #3
    1598:	d802      	bhi.n	15a0 <_ZN7drivers3lcd6c1233239C12332$LT$$x27a$C$$x20S$C$$x20T$GT$.LCD5flush20h70005536228177459644v0.0E+0x518>
    159a:	f85c 2022 	ldr.w	r2, [ip, r2, lsl #2]
    159e:	e003      	b.n	15a8 <_ZN7drivers3lcd6c1233239C12332$LT$$x27a$C$$x20S$C$$x20T$GT$.LCD5flush20h70005536228177459644v0.0E+0x520>
    15a0:	f24c 0280 	movw	r2, #49280	; 0xc080
    15a4:	f2c2 0209 	movt	r2, #8201	; 0x2009
    15a8:	7a43      	ldrb	r3, [r0, #9]
    15aa:	4099      	lsls	r1, r3
    15ac:	61d1      	str	r1, [r2, #28]
    15ae:	7b01      	ldrb	r1, [r0, #12]
    15b0:	2903      	cmp	r1, #3
    15b2:	d802      	bhi.n	15ba <_ZN7drivers3lcd6c1233239C12332$LT$$x27a$C$$x20S$C$$x20T$GT$.LCD5flush20h70005536228177459644v0.0E+0x532>
    15b4:	f85c 1021 	ldr.w	r1, [ip, r1, lsl #2]
    15b8:	e003      	b.n	15c2 <_ZN7drivers3lcd6c1233239C12332$LT$$x27a$C$$x20S$C$$x20T$GT$.LCD5flush20h70005536228177459644v0.0E+0x53a>
    15ba:	f24c 0180 	movw	r1, #49280	; 0xc080
    15be:	f2c2 0109 	movt	r1, #8201	; 0x2009
    15c2:	7b42      	ldrb	r2, [r0, #13]
    15c4:	2301      	movs	r3, #1
    15c6:	fa03 f202 	lsl.w	r2, r3, r2
    15ca:	61ca      	str	r2, [r1, #28]
    15cc:	6801      	ldr	r1, [r0, #0]
    15ce:	684a      	ldr	r2, [r1, #4]
    15d0:	68d3      	ldr	r3, [r2, #12]
    15d2:	f013 0f02 	tst.w	r3, #2
    15d6:	d0fb      	beq.n	15d0 <_ZN7drivers3lcd6c1233239C12332$LT$$x27a$C$$x20S$C$$x20T$GT$.LCD5flush20h70005536228177459644v0.0E+0x548>
    15d8:	23b2      	movs	r3, #178	; 0xb2
    15da:	6093      	str	r3, [r2, #8]
    15dc:	6849      	ldr	r1, [r1, #4]
    15de:	68ca      	ldr	r2, [r1, #12]
    15e0:	f012 0f10 	tst.w	r2, #16
    15e4:	d1fb      	bne.n	15de <_ZN7drivers3lcd6c1233239C12332$LT$$x27a$C$$x20S$C$$x20T$GT$.LCD5flush20h70005536228177459644v0.0E+0x556>
    15e6:	7b01      	ldrb	r1, [r0, #12]
    15e8:	2903      	cmp	r1, #3
    15ea:	d802      	bhi.n	15f2 <_ZN7drivers3lcd6c1233239C12332$LT$$x27a$C$$x20S$C$$x20T$GT$.LCD5flush20h70005536228177459644v0.0E+0x56a>
    15ec:	f85c 1021 	ldr.w	r1, [ip, r1, lsl #2]
    15f0:	e003      	b.n	15fa <_ZN7drivers3lcd6c1233239C12332$LT$$x27a$C$$x20S$C$$x20T$GT$.LCD5flush20h70005536228177459644v0.0E+0x572>
    15f2:	f24c 0180 	movw	r1, #49280	; 0xc080
    15f6:	f2c2 0109 	movt	r1, #8201	; 0x2009
    15fa:	7b42      	ldrb	r2, [r0, #13]
    15fc:	f04f 0e01 	mov.w	lr, #1
    1600:	fa0e f202 	lsl.w	r2, lr, r2
    1604:	618a      	str	r2, [r1, #24]
    1606:	7a01      	ldrb	r1, [r0, #8]
    1608:	2903      	cmp	r1, #3
    160a:	d802      	bhi.n	1612 <_ZN7drivers3lcd6c1233239C12332$LT$$x27a$C$$x20S$C$$x20T$GT$.LCD5flush20h70005536228177459644v0.0E+0x58a>
    160c:	f85c 1021 	ldr.w	r1, [ip, r1, lsl #2]
    1610:	e003      	b.n	161a <_ZN7drivers3lcd6c1233239C12332$LT$$x27a$C$$x20S$C$$x20T$GT$.LCD5flush20h70005536228177459644v0.0E+0x592>
    1612:	f24c 0180 	movw	r1, #49280	; 0xc080
    1616:	f2c2 0109 	movt	r1, #8201	; 0x2009
    161a:	7a42      	ldrb	r2, [r0, #9]
    161c:	f44f 7380 	mov.w	r3, #256	; 0x100
    1620:	fa0e f202 	lsl.w	r2, lr, r2
    1624:	618a      	str	r2, [r1, #24]
    1626:	f24c 0180 	movw	r1, #49280	; 0xc080
    162a:	f2c2 0109 	movt	r1, #8201	; 0x2009
    162e:	7a05      	ldrb	r5, [r0, #8]
    1630:	18c2      	adds	r2, r0, r3
    1632:	460c      	mov	r4, r1
    1634:	7d12      	ldrb	r2, [r2, #20]
    1636:	2d03      	cmp	r5, #3
    1638:	bf98      	it	ls
    163a:	f85c 4025 	ldrls.w	r4, [ip, r5, lsl #2]
    163e:	7a45      	ldrb	r5, [r0, #9]
    1640:	fa0e f505 	lsl.w	r5, lr, r5
    1644:	61a5      	str	r5, [r4, #24]
    1646:	460c      	mov	r4, r1
    1648:	7b05      	ldrb	r5, [r0, #12]
    164a:	2d03      	cmp	r5, #3
    164c:	bf98      	it	ls
    164e:	f85c 4025 	ldrls.w	r4, [ip, r5, lsl #2]
    1652:	7b45      	ldrb	r5, [r0, #13]
    1654:	fa0e f505 	lsl.w	r5, lr, r5
    1658:	61e5      	str	r5, [r4, #28]
    165a:	6804      	ldr	r4, [r0, #0]
    165c:	6865      	ldr	r5, [r4, #4]
    165e:	68ee      	ldr	r6, [r5, #12]
    1660:	f016 0f02 	tst.w	r6, #2
    1664:	d0fb      	beq.n	165e <_ZN7drivers3lcd6c1233239C12332$LT$$x27a$C$$x20S$C$$x20T$GT$.LCD5flush20h70005536228177459644v0.0E+0x5d6>
    1666:	60aa      	str	r2, [r5, #8]
    1668:	6862      	ldr	r2, [r4, #4]
    166a:	68d4      	ldr	r4, [r2, #12]
    166c:	f014 0f10 	tst.w	r4, #16
    1670:	d1fb      	bne.n	166a <_ZN7drivers3lcd6c1233239C12332$LT$$x27a$C$$x20S$C$$x20T$GT$.LCD5flush20h70005536228177459644v0.0E+0x5e2>
    1672:	7b04      	ldrb	r4, [r0, #12]
    1674:	460a      	mov	r2, r1
    1676:	3301      	adds	r3, #1
    1678:	2c03      	cmp	r4, #3
    167a:	bf98      	it	ls
    167c:	f85c 2024 	ldrls.w	r2, [ip, r4, lsl #2]
    1680:	7b44      	ldrb	r4, [r0, #13]
    1682:	f5b3 7fc0 	cmp.w	r3, #384	; 0x180
    1686:	fa0e f404 	lsl.w	r4, lr, r4
    168a:	6194      	str	r4, [r2, #24]
    168c:	d1cf      	bne.n	162e <_ZN7drivers3lcd6c1233239C12332$LT$$x27a$C$$x20S$C$$x20T$GT$.LCD5flush20h70005536228177459644v0.0E+0x5a6>
    168e:	7a01      	ldrb	r1, [r0, #8]
    1690:	2903      	cmp	r1, #3
    1692:	d802      	bhi.n	169a <_ZN7drivers3lcd6c1233239C12332$LT$$x27a$C$$x20S$C$$x20T$GT$.LCD5flush20h70005536228177459644v0.0E+0x612>
    1694:	f85c 2021 	ldr.w	r2, [ip, r1, lsl #2]
    1698:	e003      	b.n	16a2 <_ZN7drivers3lcd6c1233239C12332$LT$$x27a$C$$x20S$C$$x20T$GT$.LCD5flush20h70005536228177459644v0.0E+0x61a>
    169a:	f24c 0280 	movw	r2, #49280	; 0xc080
    169e:	f2c2 0209 	movt	r2, #8201	; 0x2009
    16a2:	7a43      	ldrb	r3, [r0, #9]
    16a4:	2101      	movs	r1, #1
    16a6:	fa01 f303 	lsl.w	r3, r1, r3
    16aa:	61d3      	str	r3, [r2, #28]
    16ac:	7b02      	ldrb	r2, [r0, #12]
    16ae:	2a03      	cmp	r2, #3
    16b0:	d802      	bhi.n	16b8 <_ZN7drivers3lcd6c1233239C12332$LT$$x27a$C$$x20S$C$$x20T$GT$.LCD5flush20h70005536228177459644v0.0E+0x630>
    16b2:	f85c 2022 	ldr.w	r2, [ip, r2, lsl #2]
    16b6:	e003      	b.n	16c0 <_ZN7drivers3lcd6c1233239C12332$LT$$x27a$C$$x20S$C$$x20T$GT$.LCD5flush20h70005536228177459644v0.0E+0x638>
    16b8:	f24c 0280 	movw	r2, #49280	; 0xc080
    16bc:	f2c2 0209 	movt	r2, #8201	; 0x2009
    16c0:	7b43      	ldrb	r3, [r0, #13]
    16c2:	4099      	lsls	r1, r3
    16c4:	61d1      	str	r1, [r2, #28]
    16c6:	6801      	ldr	r1, [r0, #0]
    16c8:	684a      	ldr	r2, [r1, #4]
    16ca:	68d3      	ldr	r3, [r2, #12]
    16cc:	f013 0f02 	tst.w	r3, #2
    16d0:	d0fb      	beq.n	16ca <_ZN7drivers3lcd6c1233239C12332$LT$$x27a$C$$x20S$C$$x20T$GT$.LCD5flush20h70005536228177459644v0.0E+0x642>
    16d2:	2300      	movs	r3, #0
    16d4:	6093      	str	r3, [r2, #8]
    16d6:	6849      	ldr	r1, [r1, #4]
    16d8:	68ca      	ldr	r2, [r1, #12]
    16da:	f012 0f10 	tst.w	r2, #16
    16de:	d1fb      	bne.n	16d8 <_ZN7drivers3lcd6c1233239C12332$LT$$x27a$C$$x20S$C$$x20T$GT$.LCD5flush20h70005536228177459644v0.0E+0x650>
    16e0:	7b01      	ldrb	r1, [r0, #12]
    16e2:	2903      	cmp	r1, #3
    16e4:	d802      	bhi.n	16ec <_ZN7drivers3lcd6c1233239C12332$LT$$x27a$C$$x20S$C$$x20T$GT$.LCD5flush20h70005536228177459644v0.0E+0x664>
    16e6:	f85c 2021 	ldr.w	r2, [ip, r1, lsl #2]
    16ea:	e003      	b.n	16f4 <_ZN7drivers3lcd6c1233239C12332$LT$$x27a$C$$x20S$C$$x20T$GT$.LCD5flush20h70005536228177459644v0.0E+0x66c>
    16ec:	f24c 0280 	movw	r2, #49280	; 0xc080
    16f0:	f2c2 0209 	movt	r2, #8201	; 0x2009
    16f4:	7b43      	ldrb	r3, [r0, #13]
    16f6:	2101      	movs	r1, #1
    16f8:	fa01 f303 	lsl.w	r3, r1, r3
    16fc:	6193      	str	r3, [r2, #24]
    16fe:	7a02      	ldrb	r2, [r0, #8]
    1700:	2a03      	cmp	r2, #3
    1702:	d802      	bhi.n	170a <_ZN7drivers3lcd6c1233239C12332$LT$$x27a$C$$x20S$C$$x20T$GT$.LCD5flush20h70005536228177459644v0.0E+0x682>
    1704:	f85c 2022 	ldr.w	r2, [ip, r2, lsl #2]
    1708:	e003      	b.n	1712 <_ZN7drivers3lcd6c1233239C12332$LT$$x27a$C$$x20S$C$$x20T$GT$.LCD5flush20h70005536228177459644v0.0E+0x68a>
    170a:	f24c 0280 	movw	r2, #49280	; 0xc080
    170e:	f2c2 0209 	movt	r2, #8201	; 0x2009
    1712:	7a43      	ldrb	r3, [r0, #9]
    1714:	4099      	lsls	r1, r3
    1716:	61d1      	str	r1, [r2, #28]
    1718:	7b01      	ldrb	r1, [r0, #12]
    171a:	2903      	cmp	r1, #3
    171c:	d802      	bhi.n	1724 <_ZN7drivers3lcd6c1233239C12332$LT$$x27a$C$$x20S$C$$x20T$GT$.LCD5flush20h70005536228177459644v0.0E+0x69c>
    171e:	f85c 1021 	ldr.w	r1, [ip, r1, lsl #2]
    1722:	e003      	b.n	172c <_ZN7drivers3lcd6c1233239C12332$LT$$x27a$C$$x20S$C$$x20T$GT$.LCD5flush20h70005536228177459644v0.0E+0x6a4>
    1724:	f24c 0180 	movw	r1, #49280	; 0xc080
    1728:	f2c2 0109 	movt	r1, #8201	; 0x2009
    172c:	7b42      	ldrb	r2, [r0, #13]
    172e:	2301      	movs	r3, #1
    1730:	fa03 f202 	lsl.w	r2, r3, r2
    1734:	61ca      	str	r2, [r1, #28]
    1736:	6801      	ldr	r1, [r0, #0]
    1738:	684a      	ldr	r2, [r1, #4]
    173a:	68d3      	ldr	r3, [r2, #12]
    173c:	f013 0f02 	tst.w	r3, #2
    1740:	d0fb      	beq.n	173a <_ZN7drivers3lcd6c1233239C12332$LT$$x27a$C$$x20S$C$$x20T$GT$.LCD5flush20h70005536228177459644v0.0E+0x6b2>
    1742:	2310      	movs	r3, #16
    1744:	6093      	str	r3, [r2, #8]
    1746:	6849      	ldr	r1, [r1, #4]
    1748:	68ca      	ldr	r2, [r1, #12]
    174a:	f012 0f10 	tst.w	r2, #16
    174e:	d1fb      	bne.n	1748 <_ZN7drivers3lcd6c1233239C12332$LT$$x27a$C$$x20S$C$$x20T$GT$.LCD5flush20h70005536228177459644v0.0E+0x6c0>
    1750:	7b01      	ldrb	r1, [r0, #12]
    1752:	2903      	cmp	r1, #3
    1754:	d802      	bhi.n	175c <_ZN7drivers3lcd6c1233239C12332$LT$$x27a$C$$x20S$C$$x20T$GT$.LCD5flush20h70005536228177459644v0.0E+0x6d4>
    1756:	f85c 2021 	ldr.w	r2, [ip, r1, lsl #2]
    175a:	e003      	b.n	1764 <_ZN7drivers3lcd6c1233239C12332$LT$$x27a$C$$x20S$C$$x20T$GT$.LCD5flush20h70005536228177459644v0.0E+0x6dc>
    175c:	f24c 0280 	movw	r2, #49280	; 0xc080
    1760:	f2c2 0209 	movt	r2, #8201	; 0x2009
    1764:	7b43      	ldrb	r3, [r0, #13]
    1766:	2101      	movs	r1, #1
    1768:	fa01 f303 	lsl.w	r3, r1, r3
    176c:	6193      	str	r3, [r2, #24]
    176e:	7a02      	ldrb	r2, [r0, #8]
    1770:	2a03      	cmp	r2, #3
    1772:	d802      	bhi.n	177a <_ZN7drivers3lcd6c1233239C12332$LT$$x27a$C$$x20S$C$$x20T$GT$.LCD5flush20h70005536228177459644v0.0E+0x6f2>
    1774:	f85c 2022 	ldr.w	r2, [ip, r2, lsl #2]
    1778:	e003      	b.n	1782 <_ZN7drivers3lcd6c1233239C12332$LT$$x27a$C$$x20S$C$$x20T$GT$.LCD5flush20h70005536228177459644v0.0E+0x6fa>
    177a:	f24c 0280 	movw	r2, #49280	; 0xc080
    177e:	f2c2 0209 	movt	r2, #8201	; 0x2009
    1782:	7a43      	ldrb	r3, [r0, #9]
    1784:	4099      	lsls	r1, r3
    1786:	61d1      	str	r1, [r2, #28]
    1788:	7b01      	ldrb	r1, [r0, #12]
    178a:	2903      	cmp	r1, #3
    178c:	d802      	bhi.n	1794 <_ZN7drivers3lcd6c1233239C12332$LT$$x27a$C$$x20S$C$$x20T$GT$.LCD5flush20h70005536228177459644v0.0E+0x70c>
    178e:	f85c 1021 	ldr.w	r1, [ip, r1, lsl #2]
    1792:	e003      	b.n	179c <_ZN7drivers3lcd6c1233239C12332$LT$$x27a$C$$x20S$C$$x20T$GT$.LCD5flush20h70005536228177459644v0.0E+0x714>
    1794:	f24c 0180 	movw	r1, #49280	; 0xc080
    1798:	f2c2 0109 	movt	r1, #8201	; 0x2009
    179c:	7b42      	ldrb	r2, [r0, #13]
    179e:	2301      	movs	r3, #1
    17a0:	fa03 f202 	lsl.w	r2, r3, r2
    17a4:	61ca      	str	r2, [r1, #28]
    17a6:	6801      	ldr	r1, [r0, #0]
    17a8:	684a      	ldr	r2, [r1, #4]
    17aa:	68d3      	ldr	r3, [r2, #12]
    17ac:	f013 0f02 	tst.w	r3, #2
    17b0:	d0fb      	beq.n	17aa <_ZN7drivers3lcd6c1233239C12332$LT$$x27a$C$$x20S$C$$x20T$GT$.LCD5flush20h70005536228177459644v0.0E+0x722>
    17b2:	23b3      	movs	r3, #179	; 0xb3
    17b4:	6093      	str	r3, [r2, #8]
    17b6:	6849      	ldr	r1, [r1, #4]
    17b8:	68ca      	ldr	r2, [r1, #12]
    17ba:	f012 0f10 	tst.w	r2, #16
    17be:	d1fb      	bne.n	17b8 <_ZN7drivers3lcd6c1233239C12332$LT$$x27a$C$$x20S$C$$x20T$GT$.LCD5flush20h70005536228177459644v0.0E+0x730>
    17c0:	7b01      	ldrb	r1, [r0, #12]
    17c2:	2903      	cmp	r1, #3
    17c4:	d802      	bhi.n	17cc <_ZN7drivers3lcd6c1233239C12332$LT$$x27a$C$$x20S$C$$x20T$GT$.LCD5flush20h70005536228177459644v0.0E+0x744>
    17c6:	f85c 1021 	ldr.w	r1, [ip, r1, lsl #2]
    17ca:	e003      	b.n	17d4 <_ZN7drivers3lcd6c1233239C12332$LT$$x27a$C$$x20S$C$$x20T$GT$.LCD5flush20h70005536228177459644v0.0E+0x74c>
    17cc:	f24c 0180 	movw	r1, #49280	; 0xc080
    17d0:	f2c2 0109 	movt	r1, #8201	; 0x2009
    17d4:	7b42      	ldrb	r2, [r0, #13]
    17d6:	f04f 0e01 	mov.w	lr, #1
    17da:	fa0e f202 	lsl.w	r2, lr, r2
    17de:	618a      	str	r2, [r1, #24]
    17e0:	7a01      	ldrb	r1, [r0, #8]
    17e2:	2903      	cmp	r1, #3
    17e4:	d802      	bhi.n	17ec <_ZN7drivers3lcd6c1233239C12332$LT$$x27a$C$$x20S$C$$x20T$GT$.LCD5flush20h70005536228177459644v0.0E+0x764>
    17e6:	f85c 1021 	ldr.w	r1, [ip, r1, lsl #2]
    17ea:	e003      	b.n	17f4 <_ZN7drivers3lcd6c1233239C12332$LT$$x27a$C$$x20S$C$$x20T$GT$.LCD5flush20h70005536228177459644v0.0E+0x76c>
    17ec:	f24c 0180 	movw	r1, #49280	; 0xc080
    17f0:	f2c2 0109 	movt	r1, #8201	; 0x2009
    17f4:	7a42      	ldrb	r2, [r0, #9]
    17f6:	f44f 73c0 	mov.w	r3, #384	; 0x180
    17fa:	fa0e f202 	lsl.w	r2, lr, r2
    17fe:	618a      	str	r2, [r1, #24]
    1800:	f24c 0180 	movw	r1, #49280	; 0xc080
    1804:	f2c2 0109 	movt	r1, #8201	; 0x2009
    1808:	e00e      	b.n	1828 <_ZN7drivers3lcd6c1233239C12332$LT$$x27a$C$$x20S$C$$x20T$GT$.LCD5flush20h70005536228177459644v0.0E+0x7a0>
    180a:	7b04      	ldrb	r4, [r0, #12]
    180c:	460a      	mov	r2, r1
    180e:	3301      	adds	r3, #1
    1810:	2c03      	cmp	r4, #3
    1812:	bf98      	it	ls
    1814:	f85c 2024 	ldrls.w	r2, [ip, r4, lsl #2]
    1818:	7b44      	ldrb	r4, [r0, #13]
    181a:	f5b3 7f00 	cmp.w	r3, #512	; 0x200
    181e:	fa0e f404 	lsl.w	r4, lr, r4
    1822:	6194      	str	r4, [r2, #24]
    1824:	bf08      	it	eq
    1826:	bd70      	popeq	{r4, r5, r6, pc}
    1828:	7a05      	ldrb	r5, [r0, #8]
    182a:	18c2      	adds	r2, r0, r3
    182c:	460c      	mov	r4, r1
    182e:	7d12      	ldrb	r2, [r2, #20]
    1830:	2d03      	cmp	r5, #3
    1832:	bf98      	it	ls
    1834:	f85c 4025 	ldrls.w	r4, [ip, r5, lsl #2]
    1838:	7a45      	ldrb	r5, [r0, #9]
    183a:	fa0e f505 	lsl.w	r5, lr, r5
    183e:	61a5      	str	r5, [r4, #24]
    1840:	460c      	mov	r4, r1
    1842:	7b05      	ldrb	r5, [r0, #12]
    1844:	2d03      	cmp	r5, #3
    1846:	bf98      	it	ls
    1848:	f85c 4025 	ldrls.w	r4, [ip, r5, lsl #2]
    184c:	7b45      	ldrb	r5, [r0, #13]
    184e:	fa0e f505 	lsl.w	r5, lr, r5
    1852:	61e5      	str	r5, [r4, #28]
    1854:	6804      	ldr	r4, [r0, #0]
    1856:	6865      	ldr	r5, [r4, #4]
    1858:	68ee      	ldr	r6, [r5, #12]
    185a:	f016 0f02 	tst.w	r6, #2
    185e:	d0fb      	beq.n	1858 <_ZN7drivers3lcd6c1233239C12332$LT$$x27a$C$$x20S$C$$x20T$GT$.LCD5flush20h70005536228177459644v0.0E+0x7d0>
    1860:	60aa      	str	r2, [r5, #8]
    1862:	6862      	ldr	r2, [r4, #4]
    1864:	68d4      	ldr	r4, [r2, #12]
    1866:	f014 0f10 	tst.w	r4, #16
    186a:	d1fb      	bne.n	1864 <_ZN7drivers3lcd6c1233239C12332$LT$$x27a$C$$x20S$C$$x20T$GT$.LCD5flush20h70005536228177459644v0.0E+0x7dc>
    186c:	e7cd      	b.n	180a <_ZN7drivers3lcd6c1233239C12332$LT$$x27a$C$$x20S$C$$x20T$GT$.LCD5flush20h70005536228177459644v0.0E+0x782>
	...

00001870 <_ZN7drivers3lcd6c1233242C12332$LT$$x27a$C$$x20S$C$$x20T$GT$.CharIO4putc21h124160362025483059614v0.0E>:
    1870:	b430      	push	{r4, r5}
    1872:	ee1d 4f70 	mrc	15, 0, r4, cr13, cr0, {3}
    1876:	466d      	mov	r5, sp
    1878:	e594      	b.n	13a4 <_ZN7drivers3lcd6c1233239C12332$LT$$x27a$C$$x20S$C$$x20T$GT$.LCD5flush20h70005536228177459644v0.0E+0x31c>
    187a:	4004      	ands	r4, r0
    187c:	42ac      	cmp	r4, r5
    187e:	d308      	bcc.n	1892 <_ZN7drivers3lcd6c1233242C12332$LT$$x27a$C$$x20S$C$$x20T$GT$.CharIO4putc21h124160362025483059614v0.0E+0x22>
    1880:	24a0      	movs	r4, #160	; 0xa0
    1882:	2500      	movs	r5, #0
    1884:	b500      	push	{lr}
    1886:	f7ff fba9 	bl	fdc <__morestack>
    188a:	f85d eb04 	ldr.w	lr, [sp], #4
    188e:	bc30      	pop	{r4, r5}
    1890:	4770      	bx	lr
    1892:	bc30      	pop	{r4, r5}
    1894:	e92d 4ff0 	stmdb	sp!, {r4, r5, r6, r7, r8, r9, sl, fp, lr}
    1898:	b09f      	sub	sp, #124	; 0x7c
    189a:	290a      	cmp	r1, #10
    189c:	d11a      	bne.n	18d4 <_ZN7drivers3lcd6c1233242C12332$LT$$x27a$C$$x20S$C$$x20T$GT$.CharIO4putc21h124160362025483059614v0.0E+0x64>
    189e:	2700      	movs	r7, #0
    18a0:	f8c0 721c 	str.w	r7, [r0, #540]	; 0x21c
    18a4:	f8d0 3218 	ldr.w	r3, [r0, #536]	; 0x218
    18a8:	2b02      	cmp	r3, #2
    18aa:	f240 8111 	bls.w	1ad0 <_ZN7drivers3lcd6c1233242C12332$LT$$x27a$C$$x20S$C$$x20T$GT$.CharIO4putc21h124160362025483059614v0.0E+0x260>
    18ae:	f8d0 1214 	ldr.w	r1, [r0, #532]	; 0x214
    18b2:	f8d0 2220 	ldr.w	r2, [r0, #544]	; 0x220
    18b6:	788b      	ldrb	r3, [r1, #2]
    18b8:	441a      	add	r2, r3
    18ba:	f8c0 2220 	str.w	r2, [r0, #544]	; 0x220
    18be:	7889      	ldrb	r1, [r1, #2]
    18c0:	f1c1 0120 	rsb	r1, r1, #32
    18c4:	428a      	cmp	r2, r1
    18c6:	bf38      	it	cc
    18c8:	4617      	movcc	r7, r2
    18ca:	f8c0 7220 	str.w	r7, [r0, #544]	; 0x220
    18ce:	b01f      	add	sp, #124	; 0x7c
    18d0:	e8bd 8ff0 	ldmia.w	sp!, {r4, r5, r6, r7, r8, r9, sl, fp, pc}
    18d4:	b2cb      	uxtb	r3, r1
    18d6:	2200      	movs	r2, #0
    18d8:	2b1f      	cmp	r3, #31
    18da:	bf34      	ite	cc
    18dc:	2201      	movcc	r2, #1
    18de:	09da      	lsrcs	r2, r3, #7
    18e0:	2a00      	cmp	r2, #0
    18e2:	f040 80de 	bne.w	1aa2 <_ZN7drivers3lcd6c1233242C12332$LT$$x27a$C$$x20S$C$$x20T$GT$.CharIO4putc21h124160362025483059614v0.0E+0x232>
    18e6:	f8d0 3218 	ldr.w	r3, [r0, #536]	; 0x218
    18ea:	2b00      	cmp	r3, #0
    18ec:	f000 80f2 	beq.w	1ad4 <_ZN7drivers3lcd6c1233242C12332$LT$$x27a$C$$x20S$C$$x20T$GT$.CharIO4putc21h124160362025483059614v0.0E+0x264>
    18f0:	2b02      	cmp	r3, #2
    18f2:	f0c0 80f5 	bcc.w	1ae0 <_ZN7drivers3lcd6c1233242C12332$LT$$x27a$C$$x20S$C$$x20T$GT$.CharIO4putc21h124160362025483059614v0.0E+0x270>
    18f6:	2b03      	cmp	r3, #3
    18f8:	f0c0 80f7 	bcc.w	1aea <_ZN7drivers3lcd6c1233242C12332$LT$$x27a$C$$x20S$C$$x20T$GT$.CharIO4putc21h124160362025483059614v0.0E+0x27a>
    18fc:	2b04      	cmp	r3, #4
    18fe:	f0c0 80f9 	bcc.w	1af4 <_ZN7drivers3lcd6c1233242C12332$LT$$x27a$C$$x20S$C$$x20T$GT$.CharIO4putc21h124160362025483059614v0.0E+0x284>
    1902:	f8d0 7214 	ldr.w	r7, [r0, #532]	; 0x214
    1906:	f8d0 521c 	ldr.w	r5, [r0, #540]	; 0x21c
    190a:	f8d0 6220 	ldr.w	r6, [r0, #544]	; 0x220
    190e:	78ba      	ldrb	r2, [r7, #2]
    1910:	f897 e001 	ldrb.w	lr, [r7, #1]
    1914:	783b      	ldrb	r3, [r7, #0]
    1916:	f897 b003 	ldrb.w	fp, [r7, #3]
    191a:	462f      	mov	r7, r5
    191c:	9604      	str	r6, [sp, #16]
    191e:	9206      	str	r2, [sp, #24]
    1920:	eb05 020e 	add.w	r2, r5, lr
    1924:	2a80      	cmp	r2, #128	; 0x80
    1926:	d908      	bls.n	193a <_ZN7drivers3lcd6c1233242C12332$LT$$x27a$C$$x20S$C$$x20T$GT$.CharIO4putc21h124160362025483059614v0.0E+0xca>
    1928:	9a04      	ldr	r2, [sp, #16]
    192a:	9f06      	ldr	r7, [sp, #24]
    192c:	19d6      	adds	r6, r2, r7
    192e:	f1c7 0220 	rsb	r2, r7, #32
    1932:	2700      	movs	r7, #0
    1934:	4296      	cmp	r6, r2
    1936:	bf28      	it	cs
    1938:	463e      	movcs	r6, r7
    193a:	9701      	str	r7, [sp, #4]
    193c:	9602      	str	r6, [sp, #8]
    193e:	2b00      	cmp	r3, #0
    1940:	f000 80dd 	beq.w	1afe <_ZN7drivers3lcd6c1233242C12332$LT$$x27a$C$$x20S$C$$x20T$GT$.CharIO4putc21h124160362025483059614v0.0E+0x28e>
    1944:	f500 7205 	add.w	r2, r0, #532	; 0x214
    1948:	31e0      	adds	r1, #224	; 0xe0
    194a:	9005      	str	r0, [sp, #20]
    194c:	4677      	mov	r7, lr
    194e:	f8d2 a000 	ldr.w	sl, [r2]
    1952:	b2c9      	uxtb	r1, r1
    1954:	4359      	muls	r1, r3
    1956:	1d0e      	adds	r6, r1, #4
    1958:	4629      	mov	r1, r5
    195a:	f81a 0006 	ldrb.w	r0, [sl, r6]
    195e:	9000      	str	r0, [sp, #0]
    1960:	9806      	ldr	r0, [sp, #24]
    1962:	2800      	cmp	r0, #0
    1964:	f000 8094 	beq.w	1a90 <_ZN7drivers3lcd6c1233242C12332$LT$$x27a$C$$x20S$C$$x20T$GT$.CharIO4putc21h124160362025483059614v0.0E+0x220>
    1968:	2000      	movs	r0, #0
    196a:	9007      	str	r0, [sp, #28]
    196c:	4630      	mov	r0, r6
    196e:	2f00      	cmp	r7, #0
    1970:	f000 8085 	beq.w	1a7e <_ZN7drivers3lcd6c1233242C12332$LT$$x27a$C$$x20S$C$$x20T$GT$.CharIO4putc21h124160362025483059614v0.0E+0x20e>
    1974:	4686      	mov	lr, r0
    1976:	9804      	ldr	r0, [sp, #16]
    1978:	9d07      	ldr	r5, [sp, #28]
    197a:	eb05 0900 	add.w	r9, r5, r0
    197e:	ea4f 70e9 	mov.w	r0, r9, asr #31
    1982:	eb09 7050 	add.w	r0, r9, r0, lsr #29
    1986:	10c2      	asrs	r2, r0, #3
    1988:	f000 00f8 	and.w	r0, r0, #248	; 0xf8
    198c:	eb01 16c2 	add.w	r6, r1, r2, lsl #7
    1990:	9203      	str	r2, [sp, #12]
    1992:	9a05      	ldr	r2, [sp, #20]
    1994:	eba9 0000 	sub.w	r0, r9, r0
    1998:	960b      	str	r6, [sp, #44]	; 0x2c
    199a:	b2c0      	uxtb	r0, r0
    199c:	4432      	add	r2, r6
    199e:	2601      	movs	r6, #1
    19a0:	fa06 f000 	lsl.w	r0, r6, r0
    19a4:	920a      	str	r2, [sp, #40]	; 0x28
    19a6:	f005 02f8 	and.w	r2, r5, #248	; 0xf8
    19aa:	9009      	str	r0, [sp, #36]	; 0x24
    19ac:	43c0      	mvns	r0, r0
    19ae:	9008      	str	r0, [sp, #32]
    19b0:	f005 0007 	and.w	r0, r5, #7
    19b4:	2500      	movs	r5, #0
    19b6:	fa06 fc00 	lsl.w	ip, r6, r0
    19ba:	4670      	mov	r0, lr
    19bc:	eb06 0ed2 	add.w	lr, r6, r2, lsr #3
    19c0:	fb05 e20b 	mla	r2, r5, fp, lr
    19c4:	b2d2      	uxtb	r2, r2
    19c6:	429a      	cmp	r2, r3
    19c8:	d26e      	bcs.n	1aa8 <_ZN7drivers3lcd6c1233242C12332$LT$$x27a$C$$x20S$C$$x20T$GT$.CharIO4putc21h124160362025483059614v0.0E+0x238>
    19ca:	4402      	add	r2, r0
    19cc:	eb01 0805 	add.w	r8, r1, r5
    19d0:	f81a 2002 	ldrb.w	r2, [sl, r2]
    19d4:	ea02 020c 	and.w	r2, r2, ip
    19d8:	f012 0fff 	tst.w	r2, #255	; 0xff
    19dc:	d025      	beq.n	1a2a <_ZN7drivers3lcd6c1233242C12332$LT$$x27a$C$$x20S$C$$x20T$GT$.CharIO4putc21h124160362025483059614v0.0E+0x1ba>
    19de:	f1b9 0f1f 	cmp.w	r9, #31
    19e2:	f04f 0200 	mov.w	r2, #0
    19e6:	f04f 0600 	mov.w	r6, #0
    19ea:	bfc8      	it	gt
    19ec:	2201      	movgt	r2, #1
    19ee:	f1b8 0f7f 	cmp.w	r8, #127	; 0x7f
    19f2:	bfc8      	it	gt
    19f4:	2601      	movgt	r6, #1
    19f6:	4332      	orrs	r2, r6
    19f8:	bf08      	it	eq
    19fa:	ea4f 72d8 	moveq.w	r2, r8, lsr #31
    19fe:	2a00      	cmp	r2, #0
    1a00:	d139      	bne.n	1a76 <_ZN7drivers3lcd6c1233242C12332$LT$$x27a$C$$x20S$C$$x20T$GT$.CharIO4putc21h124160362025483059614v0.0E+0x206>
    1a02:	f1b9 3fff 	cmp.w	r9, #4294967295	; 0xffffffff
    1a06:	dd36      	ble.n	1a76 <_ZN7drivers3lcd6c1233242C12332$LT$$x27a$C$$x20S$C$$x20T$GT$.CharIO4putc21h124160362025483059614v0.0E+0x206>
    1a08:	9a0b      	ldr	r2, [sp, #44]	; 0x2c
    1a0a:	4688      	mov	r8, r1
    1a0c:	4659      	mov	r1, fp
    1a0e:	2600      	movs	r6, #0
    1a10:	442a      	add	r2, r5
    1a12:	ebb6 2f52 	cmp.w	r6, r2, lsr #9
    1a16:	d14b      	bne.n	1ab0 <_ZN7drivers3lcd6c1233242C12332$LT$$x27a$C$$x20S$C$$x20T$GT$.CharIO4putc21h124160362025483059614v0.0E+0x240>
    1a18:	9a0a      	ldr	r2, [sp, #40]	; 0x28
    1a1a:	9c09      	ldr	r4, [sp, #36]	; 0x24
    1a1c:	468b      	mov	fp, r1
    1a1e:	4641      	mov	r1, r8
    1a20:	442a      	add	r2, r5
    1a22:	7d16      	ldrb	r6, [r2, #20]
    1a24:	4326      	orrs	r6, r4
    1a26:	7516      	strb	r6, [r2, #20]
    1a28:	e025      	b.n	1a76 <_ZN7drivers3lcd6c1233242C12332$LT$$x27a$C$$x20S$C$$x20T$GT$.CharIO4putc21h124160362025483059614v0.0E+0x206>
    1a2a:	f1b9 0f1f 	cmp.w	r9, #31
    1a2e:	f04f 0200 	mov.w	r2, #0
    1a32:	4654      	mov	r4, sl
    1a34:	f04f 0a00 	mov.w	sl, #0
    1a38:	bfc8      	it	gt
    1a3a:	2201      	movgt	r2, #1
    1a3c:	f1b8 0f7f 	cmp.w	r8, #127	; 0x7f
    1a40:	bfc8      	it	gt
    1a42:	f04f 0a01 	movgt.w	sl, #1
    1a46:	ea52 020a 	orrs.w	r2, r2, sl
    1a4a:	46a2      	mov	sl, r4
    1a4c:	bf08      	it	eq
    1a4e:	ea4f 72d8 	moveq.w	r2, r8, lsr #31
    1a52:	b982      	cbnz	r2, 1a76 <_ZN7drivers3lcd6c1233242C12332$LT$$x27a$C$$x20S$C$$x20T$GT$.CharIO4putc21h124160362025483059614v0.0E+0x206>
    1a54:	f1b9 3fff 	cmp.w	r9, #4294967295	; 0xffffffff
    1a58:	dd0d      	ble.n	1a76 <_ZN7drivers3lcd6c1233242C12332$LT$$x27a$C$$x20S$C$$x20T$GT$.CharIO4putc21h124160362025483059614v0.0E+0x206>
    1a5a:	9a0b      	ldr	r2, [sp, #44]	; 0x2c
    1a5c:	4604      	mov	r4, r0
    1a5e:	2600      	movs	r6, #0
    1a60:	442a      	add	r2, r5
    1a62:	ebb6 2f52 	cmp.w	r6, r2, lsr #9
    1a66:	d129      	bne.n	1abc <_ZN7drivers3lcd6c1233242C12332$LT$$x27a$C$$x20S$C$$x20T$GT$.CharIO4putc21h124160362025483059614v0.0E+0x24c>
    1a68:	9a0a      	ldr	r2, [sp, #40]	; 0x28
    1a6a:	9808      	ldr	r0, [sp, #32]
    1a6c:	442a      	add	r2, r5
    1a6e:	7d16      	ldrb	r6, [r2, #20]
    1a70:	4006      	ands	r6, r0
    1a72:	4620      	mov	r0, r4
    1a74:	7516      	strb	r6, [r2, #20]
    1a76:	3501      	adds	r5, #1
    1a78:	b2ea      	uxtb	r2, r5
    1a7a:	42ba      	cmp	r2, r7
    1a7c:	d3a0      	bcc.n	19c0 <_ZN7drivers3lcd6c1233242C12332$LT$$x27a$C$$x20S$C$$x20T$GT$.CharIO4putc21h124160362025483059614v0.0E+0x150>
    1a7e:	4606      	mov	r6, r0
    1a80:	9807      	ldr	r0, [sp, #28]
    1a82:	9a06      	ldr	r2, [sp, #24]
    1a84:	3001      	adds	r0, #1
    1a86:	9007      	str	r0, [sp, #28]
    1a88:	b2c0      	uxtb	r0, r0
    1a8a:	4290      	cmp	r0, r2
    1a8c:	f4ff af6e 	bcc.w	196c <_ZN7drivers3lcd6c1233242C12332$LT$$x27a$C$$x20S$C$$x20T$GT$.CharIO4putc21h124160362025483059614v0.0E+0xfc>
    1a90:	9801      	ldr	r0, [sp, #4]
    1a92:	9900      	ldr	r1, [sp, #0]
    1a94:	4408      	add	r0, r1
    1a96:	9905      	ldr	r1, [sp, #20]
    1a98:	f8c1 021c 	str.w	r0, [r1, #540]	; 0x21c
    1a9c:	9802      	ldr	r0, [sp, #8]
    1a9e:	f8c1 0220 	str.w	r0, [r1, #544]	; 0x220
    1aa2:	b01f      	add	sp, #124	; 0x7c
    1aa4:	e8bd 8ff0 	ldmia.w	sp!, {r4, r5, r6, r7, r8, r9, sl, fp, pc}
    1aa8:	a80e      	add	r0, sp, #56	; 0x38
    1aaa:	2101      	movs	r1, #1
    1aac:	f000 f84e 	bl	1b4c <_ZN7failure17fail_bounds_check20hed0620cacf201c820Xv11v0.11.0.preE>
    1ab0:	9803      	ldr	r0, [sp, #12]
    1ab2:	eb08 10c0 	add.w	r0, r8, r0, lsl #7
    1ab6:	1942      	adds	r2, r0, r5
    1ab8:	a81a      	add	r0, sp, #104	; 0x68
    1aba:	e004      	b.n	1ac6 <_ZN7drivers3lcd6c1233242C12332$LT$$x27a$C$$x20S$C$$x20T$GT$.CharIO4putc21h124160362025483059614v0.0E+0x256>
    1abc:	9803      	ldr	r0, [sp, #12]
    1abe:	eb01 10c0 	add.w	r0, r1, r0, lsl #7
    1ac2:	1942      	adds	r2, r0, r5
    1ac4:	a81c      	add	r0, sp, #112	; 0x70
    1ac6:	2101      	movs	r1, #1
    1ac8:	f44f 7300 	mov.w	r3, #512	; 0x200
    1acc:	f000 f83e 	bl	1b4c <_ZN7failure17fail_bounds_check20hed0620cacf201c820Xv11v0.11.0.preE>
    1ad0:	a80c      	add	r0, sp, #48	; 0x30
    1ad2:	e00b      	b.n	1aec <_ZN7drivers3lcd6c1233242C12332$LT$$x27a$C$$x20S$C$$x20T$GT$.CharIO4putc21h124160362025483059614v0.0E+0x27c>
    1ad4:	a818      	add	r0, sp, #96	; 0x60
    1ad6:	2101      	movs	r1, #1
    1ad8:	2200      	movs	r2, #0
    1ada:	2300      	movs	r3, #0
    1adc:	f000 f836 	bl	1b4c <_ZN7failure17fail_bounds_check20hed0620cacf201c820Xv11v0.11.0.preE>
    1ae0:	a816      	add	r0, sp, #88	; 0x58
    1ae2:	2101      	movs	r1, #1
    1ae4:	2201      	movs	r2, #1
    1ae6:	f000 f831 	bl	1b4c <_ZN7failure17fail_bounds_check20hed0620cacf201c820Xv11v0.11.0.preE>
    1aea:	a814      	add	r0, sp, #80	; 0x50
    1aec:	2101      	movs	r1, #1
    1aee:	2202      	movs	r2, #2
    1af0:	f000 f82c 	bl	1b4c <_ZN7failure17fail_bounds_check20hed0620cacf201c820Xv11v0.11.0.preE>
    1af4:	a812      	add	r0, sp, #72	; 0x48
    1af6:	2101      	movs	r1, #1
    1af8:	2203      	movs	r2, #3
    1afa:	f000 f827 	bl	1b4c <_ZN7failure17fail_bounds_check20hed0620cacf201c820Xv11v0.11.0.preE>
    1afe:	a810      	add	r0, sp, #64	; 0x40
    1b00:	2101      	movs	r1, #1
    1b02:	2200      	movs	r2, #0
    1b04:	f000 f822 	bl	1b4c <_ZN7failure17fail_bounds_check20hed0620cacf201c820Xv11v0.11.0.preE>

00001b08 <kill_current_task>:
    1b08:	e92d 4800 	stmdb	sp!, {fp, lr}
    1b0c:	b082      	sub	sp, #8
    1b0e:	f240 0000 	movw	r0, #0
    1b12:	f2c1 0000 	movt	r0, #4096	; 0x1000
    1b16:	6802      	ldr	r2, [r0, #0]
    1b18:	2a04      	cmp	r2, #4
    1b1a:	bf3f      	itttt	cc
    1b1c:	eb02 0142 	addcc.w	r1, r2, r2, lsl #1
    1b20:	eb00 0081 	addcc.w	r0, r0, r1, lsl #2
    1b24:	2100      	movcc	r1, #0
    1b26:	6081      	strcc	r1, [r0, #8]
    1b28:	bf3f      	itttt	cc
    1b2a:	f64e 5000 	movwcc	r0, #60672	; 0xed00
    1b2e:	f2ce 0000 	movtcc	r0, #57344	; 0xe000
    1b32:	f04f 5180 	movcc.w	r1, #268435456	; 0x10000000
    1b36:	6041      	strcc	r1, [r0, #4]
    1b38:	bf3c      	itt	cc
    1b3a:	b002      	addcc	sp, #8
    1b3c:	e8bd 8800 	ldmiacc.w	sp!, {fp, pc}
    1b40:	4668      	mov	r0, sp
    1b42:	2164      	movs	r1, #100	; 0x64
    1b44:	2304      	movs	r3, #4
    1b46:	f000 f801 	bl	1b4c <_ZN7failure17fail_bounds_check20hed0620cacf201c820Xv11v0.11.0.preE>
	...

00001b4c <_ZN7failure17fail_bounds_check20hed0620cacf201c820Xv11v0.11.0.preE>:
    1b4c:	b430      	push	{r4, r5}
    1b4e:	ee1d 4f70 	mrc	15, 0, r4, cr13, cr0, {3}
    1b52:	466d      	mov	r5, sp
    1b54:	e594      	b.n	1680 <_ZN7drivers3lcd6c1233239C12332$LT$$x27a$C$$x20S$C$$x20T$GT$.LCD5flush20h70005536228177459644v0.0E+0x5f8>
    1b56:	4004      	ands	r4, r0
    1b58:	42ac      	cmp	r4, r5
    1b5a:	d308      	bcc.n	1b6e <_ZN7failure17fail_bounds_check20hed0620cacf201c820Xv11v0.11.0.preE+0x22>
    1b5c:	2400      	movs	r4, #0
    1b5e:	2500      	movs	r5, #0
    1b60:	b500      	push	{lr}
    1b62:	f7ff fa3b 	bl	fdc <__morestack>
    1b66:	f85d eb04 	ldr.w	lr, [sp], #4
    1b6a:	bc30      	pop	{r4, r5}
    1b6c:	4770      	bx	lr
    1b6e:	bc30      	pop	{r4, r5}
    1b70:	bf00      	nop
	...

00001b74 <isr_adc>:
    1b74:	f3ef 8009 	mrs	r0, PSP
    1b78:	f3ef 8108 	mrs	r1, MSP
    1b7c:	6982      	ldr	r2, [r0, #24]
    1b7e:	698b      	ldr	r3, [r1, #24]
    1b80:	be00      	bkpt	0x0000
    1b82:	4770      	bx	lr

00001b84 <memcpy>:
    1b84:	2a00      	cmp	r2, #0
    1b86:	bfd8      	it	le
    1b88:	4770      	bxle	lr
    1b8a:	f811 3b01 	ldrb.w	r3, [r1], #1
    1b8e:	3a01      	subs	r2, #1
    1b90:	f800 3b01 	strb.w	r3, [r0], #1
    1b94:	d1f9      	bne.n	1b8a <memcpy+0x6>
    1b96:	4770      	bx	lr

00001b98 <__aeabi_memcpy>:
    1b98:	f7ff bff4 	b.w	1b84 <memcpy>

00001b9c <memset>:
    1b9c:	2a01      	cmp	r2, #1
    1b9e:	bfb8      	it	lt
    1ba0:	4770      	bxlt	lr
    1ba2:	f800 1b01 	strb.w	r1, [r0], #1
    1ba6:	3a01      	subs	r2, #1
    1ba8:	d1fb      	bne.n	1ba2 <memset+0x6>
    1baa:	4770      	bx	lr

00001bac <__aeabi_memset>:
    1bac:	460b      	mov	r3, r1
    1bae:	4611      	mov	r1, r2
    1bb0:	461a      	mov	r2, r3
    1bb2:	f7ff bff3 	b.w	1b9c <memset>
	...

00001bb8 <abort>:
    1bb8:	be00      	bkpt	0x0000
    1bba:	e7fe      	b.n	1bba <abort+0x2>

00001bbc <__aeabi_unwind_cpp_pr0>:
    1bbc:	e92d 4800 	stmdb	sp!, {fp, lr}
    1bc0:	f7ff fffa 	bl	1bb8 <abort>

00001bc4 <isr_systick>:
    1bc4:	f3ef 8009 	mrs	r0, PSP
    1bc8:	e920 0ff0 	stmdb	r0!, {r4, r5, r6, r7, r8, r9, sl, fp}
    1bcc:	f380 8809 	msr	PSP, r0
    1bd0:	f7ff fa12 	bl	ff8 <task_scheduler>
    1bd4:	f3ef 8009 	mrs	r0, PSP
    1bd8:	e8b0 0ff0 	ldmia.w	r0!, {r4, r5, r6, r7, r8, r9, sl, fp}
    1bdc:	f380 8809 	msr	PSP, r0
    1be0:	f8df e004 	ldr.w	lr, [pc, #4]	; 1be8 <isr_systick+0x24>
    1be4:	4770      	bx	lr
    1be6:	fffd0000 			; <UNDEFINED> instruction: 0xfffd0000
    1bea:	f3efffff 			; <UNDEFINED> instruction: 0xf3efffff

00001bec <isr_pendsv>:
    1bec:	f3ef 8009 	mrs	r0, PSP
    1bf0:	e920 0ff0 	stmdb	r0!, {r4, r5, r6, r7, r8, r9, sl, fp}
    1bf4:	f380 8809 	msr	PSP, r0
    1bf8:	f7ff f9fe 	bl	ff8 <task_scheduler>
    1bfc:	f3ef 8009 	mrs	r0, PSP
    1c00:	e8b0 0ff0 	ldmia.w	r0!, {r4, r5, r6, r7, r8, r9, sl, fp}
    1c04:	f380 8809 	msr	PSP, r0
    1c08:	f8df e004 	ldr.w	lr, [pc, #4]	; 1c10 <isr_pendsv+0x24>
    1c0c:	4770      	bx	lr
    1c0e:	fffd0000 			; <UNDEFINED> instruction: 0xfffd0000
    1c12:	f3efffff 			; <UNDEFINED> instruction: 0xf3efffff

00001c14 <isr_svcall>:
    1c14:	f3ef 8209 	mrs	r2, PSP
    1c18:	6811      	ldr	r1, [r2, #0]
    1c1a:	6850      	ldr	r0, [r2, #4]
    1c1c:	b500      	push	{lr}
    1c1e:	4788      	blx	r1
    1c20:	bd00      	pop	{pc}
    1c22:	bf00      	nop

00001c24 <syscall>:
    1c24:	df00      	svc	0
    1c26:	4770      	bx	lr

00001c28 <__aeabi_frsub>:
    1c28:	f080 4000 	eor.w	r0, r0, #2147483648	; 0x80000000
    1c2c:	e002      	b.n	1c34 <__addsf3>
    1c2e:	bf00      	nop

00001c30 <__aeabi_fsub>:
    1c30:	f081 4100 	eor.w	r1, r1, #2147483648	; 0x80000000

00001c34 <__addsf3>:
    1c34:	0042      	lsls	r2, r0, #1
    1c36:	bf1f      	itttt	ne
    1c38:	ea5f 0341 	movsne.w	r3, r1, lsl #1
    1c3c:	ea92 0f03 	teqne	r2, r3
    1c40:	ea7f 6c22 	mvnsne.w	ip, r2, asr #24
    1c44:	ea7f 6c23 	mvnsne.w	ip, r3, asr #24
    1c48:	d06a      	beq.n	1d20 <__addsf3+0xec>
    1c4a:	ea4f 6212 	mov.w	r2, r2, lsr #24
    1c4e:	ebd2 6313 	rsbs	r3, r2, r3, lsr #24
    1c52:	bfc1      	itttt	gt
    1c54:	18d2      	addgt	r2, r2, r3
    1c56:	4041      	eorgt	r1, r0
    1c58:	4048      	eorgt	r0, r1
    1c5a:	4041      	eorgt	r1, r0
    1c5c:	bfb8      	it	lt
    1c5e:	425b      	neglt	r3, r3
    1c60:	2b19      	cmp	r3, #25
    1c62:	bf88      	it	hi
    1c64:	4770      	bxhi	lr
    1c66:	f010 4f00 	tst.w	r0, #2147483648	; 0x80000000
    1c6a:	f440 0000 	orr.w	r0, r0, #8388608	; 0x800000
    1c6e:	f020 407f 	bic.w	r0, r0, #4278190080	; 0xff000000
    1c72:	bf18      	it	ne
    1c74:	4240      	negne	r0, r0
    1c76:	f011 4f00 	tst.w	r1, #2147483648	; 0x80000000
    1c7a:	f441 0100 	orr.w	r1, r1, #8388608	; 0x800000
    1c7e:	f021 417f 	bic.w	r1, r1, #4278190080	; 0xff000000
    1c82:	bf18      	it	ne
    1c84:	4249      	negne	r1, r1
    1c86:	ea92 0f03 	teq	r2, r3
    1c8a:	d03f      	beq.n	1d0c <__addsf3+0xd8>
    1c8c:	f1a2 0201 	sub.w	r2, r2, #1
    1c90:	fa41 fc03 	asr.w	ip, r1, r3
    1c94:	eb10 000c 	adds.w	r0, r0, ip
    1c98:	f1c3 0320 	rsb	r3, r3, #32
    1c9c:	fa01 f103 	lsl.w	r1, r1, r3
    1ca0:	f000 4300 	and.w	r3, r0, #2147483648	; 0x80000000
    1ca4:	d502      	bpl.n	1cac <__addsf3+0x78>
    1ca6:	4249      	negs	r1, r1
    1ca8:	eb60 0040 	sbc.w	r0, r0, r0, lsl #1
    1cac:	f5b0 0f00 	cmp.w	r0, #8388608	; 0x800000
    1cb0:	d313      	bcc.n	1cda <__addsf3+0xa6>
    1cb2:	f1b0 7f80 	cmp.w	r0, #16777216	; 0x1000000
    1cb6:	d306      	bcc.n	1cc6 <__addsf3+0x92>
    1cb8:	0840      	lsrs	r0, r0, #1
    1cba:	ea4f 0131 	mov.w	r1, r1, rrx
    1cbe:	f102 0201 	add.w	r2, r2, #1
    1cc2:	2afe      	cmp	r2, #254	; 0xfe
    1cc4:	d251      	bcs.n	1d6a <__addsf3+0x136>
    1cc6:	f1b1 4f00 	cmp.w	r1, #2147483648	; 0x80000000
    1cca:	eb40 50c2 	adc.w	r0, r0, r2, lsl #23
    1cce:	bf08      	it	eq
    1cd0:	f020 0001 	biceq.w	r0, r0, #1
    1cd4:	ea40 0003 	orr.w	r0, r0, r3
    1cd8:	4770      	bx	lr
    1cda:	0049      	lsls	r1, r1, #1
    1cdc:	eb40 0000 	adc.w	r0, r0, r0
    1ce0:	f410 0f00 	tst.w	r0, #8388608	; 0x800000
    1ce4:	f1a2 0201 	sub.w	r2, r2, #1
    1ce8:	d1ed      	bne.n	1cc6 <__addsf3+0x92>
    1cea:	fab0 fc80 	clz	ip, r0
    1cee:	f1ac 0c08 	sub.w	ip, ip, #8
    1cf2:	ebb2 020c 	subs.w	r2, r2, ip
    1cf6:	fa00 f00c 	lsl.w	r0, r0, ip
    1cfa:	bfaa      	itet	ge
    1cfc:	eb00 50c2 	addge.w	r0, r0, r2, lsl #23
    1d00:	4252      	neglt	r2, r2
    1d02:	4318      	orrge	r0, r3
    1d04:	bfbc      	itt	lt
    1d06:	40d0      	lsrlt	r0, r2
    1d08:	4318      	orrlt	r0, r3
    1d0a:	4770      	bx	lr
    1d0c:	f092 0f00 	teq	r2, #0
    1d10:	f481 0100 	eor.w	r1, r1, #8388608	; 0x800000
    1d14:	bf06      	itte	eq
    1d16:	f480 0000 	eoreq.w	r0, r0, #8388608	; 0x800000
    1d1a:	3201      	addeq	r2, #1
    1d1c:	3b01      	subne	r3, #1
    1d1e:	e7b5      	b.n	1c8c <__addsf3+0x58>
    1d20:	ea4f 0341 	mov.w	r3, r1, lsl #1
    1d24:	ea7f 6c22 	mvns.w	ip, r2, asr #24
    1d28:	bf18      	it	ne
    1d2a:	ea7f 6c23 	mvnsne.w	ip, r3, asr #24
    1d2e:	d021      	beq.n	1d74 <__addsf3+0x140>
    1d30:	ea92 0f03 	teq	r2, r3
    1d34:	d004      	beq.n	1d40 <__addsf3+0x10c>
    1d36:	f092 0f00 	teq	r2, #0
    1d3a:	bf08      	it	eq
    1d3c:	4608      	moveq	r0, r1
    1d3e:	4770      	bx	lr
    1d40:	ea90 0f01 	teq	r0, r1
    1d44:	bf1c      	itt	ne
    1d46:	2000      	movne	r0, #0
    1d48:	4770      	bxne	lr
    1d4a:	f012 4f7f 	tst.w	r2, #4278190080	; 0xff000000
    1d4e:	d104      	bne.n	1d5a <__addsf3+0x126>
    1d50:	0040      	lsls	r0, r0, #1
    1d52:	bf28      	it	cs
    1d54:	f040 4000 	orrcs.w	r0, r0, #2147483648	; 0x80000000
    1d58:	4770      	bx	lr
    1d5a:	f112 7200 	adds.w	r2, r2, #33554432	; 0x2000000
    1d5e:	bf3c      	itt	cc
    1d60:	f500 0000 	addcc.w	r0, r0, #8388608	; 0x800000
    1d64:	4770      	bxcc	lr
    1d66:	f000 4300 	and.w	r3, r0, #2147483648	; 0x80000000
    1d6a:	f043 40fe 	orr.w	r0, r3, #2130706432	; 0x7f000000
    1d6e:	f440 0000 	orr.w	r0, r0, #8388608	; 0x800000
    1d72:	4770      	bx	lr
    1d74:	ea7f 6222 	mvns.w	r2, r2, asr #24
    1d78:	bf16      	itet	ne
    1d7a:	4608      	movne	r0, r1
    1d7c:	ea7f 6323 	mvnseq.w	r3, r3, asr #24
    1d80:	4601      	movne	r1, r0
    1d82:	0242      	lsls	r2, r0, #9
    1d84:	bf06      	itte	eq
    1d86:	ea5f 2341 	movseq.w	r3, r1, lsl #9
    1d8a:	ea90 0f01 	teqeq	r0, r1
    1d8e:	f440 0080 	orrne.w	r0, r0, #4194304	; 0x400000
    1d92:	4770      	bx	lr

00001d94 <__aeabi_ui2f>:
    1d94:	f04f 0300 	mov.w	r3, #0
    1d98:	e004      	b.n	1da4 <__aeabi_i2f+0x8>
    1d9a:	bf00      	nop

00001d9c <__aeabi_i2f>:
    1d9c:	f010 4300 	ands.w	r3, r0, #2147483648	; 0x80000000
    1da0:	bf48      	it	mi
    1da2:	4240      	negmi	r0, r0
    1da4:	ea5f 0c00 	movs.w	ip, r0
    1da8:	bf08      	it	eq
    1daa:	4770      	bxeq	lr
    1dac:	f043 4396 	orr.w	r3, r3, #1258291200	; 0x4b000000
    1db0:	4601      	mov	r1, r0
    1db2:	f04f 0000 	mov.w	r0, #0
    1db6:	e01c      	b.n	1df2 <__aeabi_l2f+0x2a>

00001db8 <__aeabi_ul2f>:
    1db8:	ea50 0201 	orrs.w	r2, r0, r1
    1dbc:	bf08      	it	eq
    1dbe:	4770      	bxeq	lr
    1dc0:	f04f 0300 	mov.w	r3, #0
    1dc4:	e00a      	b.n	1ddc <__aeabi_l2f+0x14>
    1dc6:	bf00      	nop

00001dc8 <__aeabi_l2f>:
    1dc8:	ea50 0201 	orrs.w	r2, r0, r1
    1dcc:	bf08      	it	eq
    1dce:	4770      	bxeq	lr
    1dd0:	f011 4300 	ands.w	r3, r1, #2147483648	; 0x80000000
    1dd4:	d502      	bpl.n	1ddc <__aeabi_l2f+0x14>
    1dd6:	4240      	negs	r0, r0
    1dd8:	eb61 0141 	sbc.w	r1, r1, r1, lsl #1
    1ddc:	ea5f 0c01 	movs.w	ip, r1
    1de0:	bf02      	ittt	eq
    1de2:	4684      	moveq	ip, r0
    1de4:	4601      	moveq	r1, r0
    1de6:	2000      	moveq	r0, #0
    1de8:	f043 43b6 	orr.w	r3, r3, #1526726656	; 0x5b000000
    1dec:	bf08      	it	eq
    1dee:	f1a3 5380 	subeq.w	r3, r3, #268435456	; 0x10000000
    1df2:	f5a3 0300 	sub.w	r3, r3, #8388608	; 0x800000
    1df6:	fabc f28c 	clz	r2, ip
    1dfa:	3a08      	subs	r2, #8
    1dfc:	eba3 53c2 	sub.w	r3, r3, r2, lsl #23
    1e00:	db10      	blt.n	1e24 <__aeabi_l2f+0x5c>
    1e02:	fa01 fc02 	lsl.w	ip, r1, r2
    1e06:	4463      	add	r3, ip
    1e08:	fa00 fc02 	lsl.w	ip, r0, r2
    1e0c:	f1c2 0220 	rsb	r2, r2, #32
    1e10:	f1bc 4f00 	cmp.w	ip, #2147483648	; 0x80000000
    1e14:	fa20 f202 	lsr.w	r2, r0, r2
    1e18:	eb43 0002 	adc.w	r0, r3, r2
    1e1c:	bf08      	it	eq
    1e1e:	f020 0001 	biceq.w	r0, r0, #1
    1e22:	4770      	bx	lr
    1e24:	f102 0220 	add.w	r2, r2, #32
    1e28:	fa01 fc02 	lsl.w	ip, r1, r2
    1e2c:	f1c2 0220 	rsb	r2, r2, #32
    1e30:	ea50 004c 	orrs.w	r0, r0, ip, lsl #1
    1e34:	fa21 f202 	lsr.w	r2, r1, r2
    1e38:	eb43 0002 	adc.w	r0, r3, r2
    1e3c:	bf08      	it	eq
    1e3e:	ea20 70dc 	biceq.w	r0, r0, ip, lsr #31
    1e42:	4770      	bx	lr

00001e44 <__aeabi_fmul>:
    1e44:	f04f 0cff 	mov.w	ip, #255	; 0xff
    1e48:	ea1c 52d0 	ands.w	r2, ip, r0, lsr #23
    1e4c:	bf1e      	ittt	ne
    1e4e:	ea1c 53d1 	andsne.w	r3, ip, r1, lsr #23
    1e52:	ea92 0f0c 	teqne	r2, ip
    1e56:	ea93 0f0c 	teqne	r3, ip
    1e5a:	d06f      	beq.n	1f3c <__aeabi_fmul+0xf8>
    1e5c:	441a      	add	r2, r3
    1e5e:	ea80 0c01 	eor.w	ip, r0, r1
    1e62:	0240      	lsls	r0, r0, #9
    1e64:	bf18      	it	ne
    1e66:	ea5f 2141 	movsne.w	r1, r1, lsl #9
    1e6a:	d01e      	beq.n	1eaa <__aeabi_fmul+0x66>
    1e6c:	f04f 6300 	mov.w	r3, #134217728	; 0x8000000
    1e70:	ea43 1050 	orr.w	r0, r3, r0, lsr #5
    1e74:	ea43 1151 	orr.w	r1, r3, r1, lsr #5
    1e78:	fba0 3101 	umull	r3, r1, r0, r1
    1e7c:	f00c 4000 	and.w	r0, ip, #2147483648	; 0x80000000
    1e80:	f5b1 0f00 	cmp.w	r1, #8388608	; 0x800000
    1e84:	bf3e      	ittt	cc
    1e86:	0049      	lslcc	r1, r1, #1
    1e88:	ea41 71d3 	orrcc.w	r1, r1, r3, lsr #31
    1e8c:	005b      	lslcc	r3, r3, #1
    1e8e:	ea40 0001 	orr.w	r0, r0, r1
    1e92:	f162 027f 	sbc.w	r2, r2, #127	; 0x7f
    1e96:	2afd      	cmp	r2, #253	; 0xfd
    1e98:	d81d      	bhi.n	1ed6 <__aeabi_fmul+0x92>
    1e9a:	f1b3 4f00 	cmp.w	r3, #2147483648	; 0x80000000
    1e9e:	eb40 50c2 	adc.w	r0, r0, r2, lsl #23
    1ea2:	bf08      	it	eq
    1ea4:	f020 0001 	biceq.w	r0, r0, #1
    1ea8:	4770      	bx	lr
    1eaa:	f090 0f00 	teq	r0, #0
    1eae:	f00c 4c00 	and.w	ip, ip, #2147483648	; 0x80000000
    1eb2:	bf08      	it	eq
    1eb4:	0249      	lsleq	r1, r1, #9
    1eb6:	ea4c 2050 	orr.w	r0, ip, r0, lsr #9
    1eba:	ea40 2051 	orr.w	r0, r0, r1, lsr #9
    1ebe:	3a7f      	subs	r2, #127	; 0x7f
    1ec0:	bfc2      	ittt	gt
    1ec2:	f1d2 03ff 	rsbsgt	r3, r2, #255	; 0xff
    1ec6:	ea40 50c2 	orrgt.w	r0, r0, r2, lsl #23
    1eca:	4770      	bxgt	lr
    1ecc:	f440 0000 	orr.w	r0, r0, #8388608	; 0x800000
    1ed0:	f04f 0300 	mov.w	r3, #0
    1ed4:	3a01      	subs	r2, #1
    1ed6:	dc5d      	bgt.n	1f94 <__aeabi_fmul+0x150>
    1ed8:	f112 0f19 	cmn.w	r2, #25
    1edc:	bfdc      	itt	le
    1ede:	f000 4000 	andle.w	r0, r0, #2147483648	; 0x80000000
    1ee2:	4770      	bxle	lr
    1ee4:	f1c2 0200 	rsb	r2, r2, #0
    1ee8:	0041      	lsls	r1, r0, #1
    1eea:	fa21 f102 	lsr.w	r1, r1, r2
    1eee:	f1c2 0220 	rsb	r2, r2, #32
    1ef2:	fa00 fc02 	lsl.w	ip, r0, r2
    1ef6:	ea5f 0031 	movs.w	r0, r1, rrx
    1efa:	f140 0000 	adc.w	r0, r0, #0
    1efe:	ea53 034c 	orrs.w	r3, r3, ip, lsl #1
    1f02:	bf08      	it	eq
    1f04:	ea20 70dc 	biceq.w	r0, r0, ip, lsr #31
    1f08:	4770      	bx	lr
    1f0a:	f092 0f00 	teq	r2, #0
    1f0e:	f000 4c00 	and.w	ip, r0, #2147483648	; 0x80000000
    1f12:	bf02      	ittt	eq
    1f14:	0040      	lsleq	r0, r0, #1
    1f16:	f410 0f00 	tsteq.w	r0, #8388608	; 0x800000
    1f1a:	3a01      	subeq	r2, #1
    1f1c:	d0f9      	beq.n	1f12 <__aeabi_fmul+0xce>
    1f1e:	ea40 000c 	orr.w	r0, r0, ip
    1f22:	f093 0f00 	teq	r3, #0
    1f26:	f001 4c00 	and.w	ip, r1, #2147483648	; 0x80000000
    1f2a:	bf02      	ittt	eq
    1f2c:	0049      	lsleq	r1, r1, #1
    1f2e:	f411 0f00 	tsteq.w	r1, #8388608	; 0x800000
    1f32:	3b01      	subeq	r3, #1
    1f34:	d0f9      	beq.n	1f2a <__aeabi_fmul+0xe6>
    1f36:	ea41 010c 	orr.w	r1, r1, ip
    1f3a:	e78f      	b.n	1e5c <__aeabi_fmul+0x18>
    1f3c:	ea0c 53d1 	and.w	r3, ip, r1, lsr #23
    1f40:	ea92 0f0c 	teq	r2, ip
    1f44:	bf18      	it	ne
    1f46:	ea93 0f0c 	teqne	r3, ip
    1f4a:	d00a      	beq.n	1f62 <__aeabi_fmul+0x11e>
    1f4c:	f030 4c00 	bics.w	ip, r0, #2147483648	; 0x80000000
    1f50:	bf18      	it	ne
    1f52:	f031 4c00 	bicsne.w	ip, r1, #2147483648	; 0x80000000
    1f56:	d1d8      	bne.n	1f0a <__aeabi_fmul+0xc6>
    1f58:	ea80 0001 	eor.w	r0, r0, r1
    1f5c:	f000 4000 	and.w	r0, r0, #2147483648	; 0x80000000
    1f60:	4770      	bx	lr
    1f62:	f090 0f00 	teq	r0, #0
    1f66:	bf17      	itett	ne
    1f68:	f090 4f00 	teqne	r0, #2147483648	; 0x80000000
    1f6c:	4608      	moveq	r0, r1
    1f6e:	f091 0f00 	teqne	r1, #0
    1f72:	f091 4f00 	teqne	r1, #2147483648	; 0x80000000
    1f76:	d014      	beq.n	1fa2 <__aeabi_fmul+0x15e>
    1f78:	ea92 0f0c 	teq	r2, ip
    1f7c:	d101      	bne.n	1f82 <__aeabi_fmul+0x13e>
    1f7e:	0242      	lsls	r2, r0, #9
    1f80:	d10f      	bne.n	1fa2 <__aeabi_fmul+0x15e>
    1f82:	ea93 0f0c 	teq	r3, ip
    1f86:	d103      	bne.n	1f90 <__aeabi_fmul+0x14c>
    1f88:	024b      	lsls	r3, r1, #9
    1f8a:	bf18      	it	ne
    1f8c:	4608      	movne	r0, r1
    1f8e:	d108      	bne.n	1fa2 <__aeabi_fmul+0x15e>
    1f90:	ea80 0001 	eor.w	r0, r0, r1
    1f94:	f000 4000 	and.w	r0, r0, #2147483648	; 0x80000000
    1f98:	f040 40fe 	orr.w	r0, r0, #2130706432	; 0x7f000000
    1f9c:	f440 0000 	orr.w	r0, r0, #8388608	; 0x800000
    1fa0:	4770      	bx	lr
    1fa2:	f040 40fe 	orr.w	r0, r0, #2130706432	; 0x7f000000
    1fa6:	f440 0040 	orr.w	r0, r0, #12582912	; 0xc00000
    1faa:	4770      	bx	lr

00001fac <__aeabi_fdiv>:
    1fac:	f04f 0cff 	mov.w	ip, #255	; 0xff
    1fb0:	ea1c 52d0 	ands.w	r2, ip, r0, lsr #23
    1fb4:	bf1e      	ittt	ne
    1fb6:	ea1c 53d1 	andsne.w	r3, ip, r1, lsr #23
    1fba:	ea92 0f0c 	teqne	r2, ip
    1fbe:	ea93 0f0c 	teqne	r3, ip
    1fc2:	d069      	beq.n	2098 <__aeabi_fdiv+0xec>
    1fc4:	eba2 0203 	sub.w	r2, r2, r3
    1fc8:	ea80 0c01 	eor.w	ip, r0, r1
    1fcc:	0249      	lsls	r1, r1, #9
    1fce:	ea4f 2040 	mov.w	r0, r0, lsl #9
    1fd2:	d037      	beq.n	2044 <__aeabi_fdiv+0x98>
    1fd4:	f04f 5380 	mov.w	r3, #268435456	; 0x10000000
    1fd8:	ea43 1111 	orr.w	r1, r3, r1, lsr #4
    1fdc:	ea43 1310 	orr.w	r3, r3, r0, lsr #4
    1fe0:	f00c 4000 	and.w	r0, ip, #2147483648	; 0x80000000
    1fe4:	428b      	cmp	r3, r1
    1fe6:	bf38      	it	cc
    1fe8:	005b      	lslcc	r3, r3, #1
    1fea:	f142 027d 	adc.w	r2, r2, #125	; 0x7d
    1fee:	f44f 0c00 	mov.w	ip, #8388608	; 0x800000
    1ff2:	428b      	cmp	r3, r1
    1ff4:	bf24      	itt	cs
    1ff6:	1a5b      	subcs	r3, r3, r1
    1ff8:	ea40 000c 	orrcs.w	r0, r0, ip
    1ffc:	ebb3 0f51 	cmp.w	r3, r1, lsr #1
    2000:	bf24      	itt	cs
    2002:	eba3 0351 	subcs.w	r3, r3, r1, lsr #1
    2006:	ea40 005c 	orrcs.w	r0, r0, ip, lsr #1
    200a:	ebb3 0f91 	cmp.w	r3, r1, lsr #2
    200e:	bf24      	itt	cs
    2010:	eba3 0391 	subcs.w	r3, r3, r1, lsr #2
    2014:	ea40 009c 	orrcs.w	r0, r0, ip, lsr #2
    2018:	ebb3 0fd1 	cmp.w	r3, r1, lsr #3
    201c:	bf24      	itt	cs
    201e:	eba3 03d1 	subcs.w	r3, r3, r1, lsr #3
    2022:	ea40 00dc 	orrcs.w	r0, r0, ip, lsr #3
    2026:	011b      	lsls	r3, r3, #4
    2028:	bf18      	it	ne
    202a:	ea5f 1c1c 	movsne.w	ip, ip, lsr #4
    202e:	d1e0      	bne.n	1ff2 <__aeabi_fdiv+0x46>
    2030:	2afd      	cmp	r2, #253	; 0xfd
    2032:	f63f af50 	bhi.w	1ed6 <__aeabi_fmul+0x92>
    2036:	428b      	cmp	r3, r1
    2038:	eb40 50c2 	adc.w	r0, r0, r2, lsl #23
    203c:	bf08      	it	eq
    203e:	f020 0001 	biceq.w	r0, r0, #1
    2042:	4770      	bx	lr
    2044:	f00c 4c00 	and.w	ip, ip, #2147483648	; 0x80000000
    2048:	ea4c 2050 	orr.w	r0, ip, r0, lsr #9
    204c:	327f      	adds	r2, #127	; 0x7f
    204e:	bfc2      	ittt	gt
    2050:	f1d2 03ff 	rsbsgt	r3, r2, #255	; 0xff
    2054:	ea40 50c2 	orrgt.w	r0, r0, r2, lsl #23
    2058:	4770      	bxgt	lr
    205a:	f440 0000 	orr.w	r0, r0, #8388608	; 0x800000
    205e:	f04f 0300 	mov.w	r3, #0
    2062:	3a01      	subs	r2, #1
    2064:	e737      	b.n	1ed6 <__aeabi_fmul+0x92>
    2066:	f092 0f00 	teq	r2, #0
    206a:	f000 4c00 	and.w	ip, r0, #2147483648	; 0x80000000
    206e:	bf02      	ittt	eq
    2070:	0040      	lsleq	r0, r0, #1
    2072:	f410 0f00 	tsteq.w	r0, #8388608	; 0x800000
    2076:	3a01      	subeq	r2, #1
    2078:	d0f9      	beq.n	206e <__aeabi_fdiv+0xc2>
    207a:	ea40 000c 	orr.w	r0, r0, ip
    207e:	f093 0f00 	teq	r3, #0
    2082:	f001 4c00 	and.w	ip, r1, #2147483648	; 0x80000000
    2086:	bf02      	ittt	eq
    2088:	0049      	lsleq	r1, r1, #1
    208a:	f411 0f00 	tsteq.w	r1, #8388608	; 0x800000
    208e:	3b01      	subeq	r3, #1
    2090:	d0f9      	beq.n	2086 <__aeabi_fdiv+0xda>
    2092:	ea41 010c 	orr.w	r1, r1, ip
    2096:	e795      	b.n	1fc4 <__aeabi_fdiv+0x18>
    2098:	ea0c 53d1 	and.w	r3, ip, r1, lsr #23
    209c:	ea92 0f0c 	teq	r2, ip
    20a0:	d108      	bne.n	20b4 <__aeabi_fdiv+0x108>
    20a2:	0242      	lsls	r2, r0, #9
    20a4:	f47f af7d 	bne.w	1fa2 <__aeabi_fmul+0x15e>
    20a8:	ea93 0f0c 	teq	r3, ip
    20ac:	f47f af70 	bne.w	1f90 <__aeabi_fmul+0x14c>
    20b0:	4608      	mov	r0, r1
    20b2:	e776      	b.n	1fa2 <__aeabi_fmul+0x15e>
    20b4:	ea93 0f0c 	teq	r3, ip
    20b8:	d104      	bne.n	20c4 <__aeabi_fdiv+0x118>
    20ba:	024b      	lsls	r3, r1, #9
    20bc:	f43f af4c 	beq.w	1f58 <__aeabi_fmul+0x114>
    20c0:	4608      	mov	r0, r1
    20c2:	e76e      	b.n	1fa2 <__aeabi_fmul+0x15e>
    20c4:	f030 4c00 	bics.w	ip, r0, #2147483648	; 0x80000000
    20c8:	bf18      	it	ne
    20ca:	f031 4c00 	bicsne.w	ip, r1, #2147483648	; 0x80000000
    20ce:	d1ca      	bne.n	2066 <__aeabi_fdiv+0xba>
    20d0:	f030 4200 	bics.w	r2, r0, #2147483648	; 0x80000000
    20d4:	f47f af5c 	bne.w	1f90 <__aeabi_fmul+0x14c>
    20d8:	f031 4300 	bics.w	r3, r1, #2147483648	; 0x80000000
    20dc:	f47f af3c 	bne.w	1f58 <__aeabi_fmul+0x114>
    20e0:	e75f      	b.n	1fa2 <__aeabi_fmul+0x15e>
    20e2:	bf00      	nop

000020e4 <__aeabi_f2uiz>:
    20e4:	0042      	lsls	r2, r0, #1
    20e6:	d20e      	bcs.n	2106 <__aeabi_f2uiz+0x22>
    20e8:	f1b2 4ffe 	cmp.w	r2, #2130706432	; 0x7f000000
    20ec:	d30b      	bcc.n	2106 <__aeabi_f2uiz+0x22>
    20ee:	f04f 039e 	mov.w	r3, #158	; 0x9e
    20f2:	ebb3 6212 	subs.w	r2, r3, r2, lsr #24
    20f6:	d409      	bmi.n	210c <__aeabi_f2uiz+0x28>
    20f8:	ea4f 2300 	mov.w	r3, r0, lsl #8
    20fc:	f043 4300 	orr.w	r3, r3, #2147483648	; 0x80000000
    2100:	fa23 f002 	lsr.w	r0, r3, r2
    2104:	4770      	bx	lr
    2106:	f04f 0000 	mov.w	r0, #0
    210a:	4770      	bx	lr
    210c:	f112 0f61 	cmn.w	r2, #97	; 0x61
    2110:	d101      	bne.n	2116 <__aeabi_f2uiz+0x32>
    2112:	0242      	lsls	r2, r0, #9
    2114:	d102      	bne.n	211c <__aeabi_f2uiz+0x38>
    2116:	f04f 30ff 	mov.w	r0, #4294967295	; 0xffffffff
    211a:	4770      	bx	lr
    211c:	f04f 0000 	mov.w	r0, #0
    2120:	4770      	bx	lr
    2122:	bf00      	nop
	...

00002130 <_ZN8platform20h215e908e6253f4ebLaa4v0.0E>:
    2130:	00000001 	andeq	r0, r0, r1
    2134:	00b71b00 	adcseq	r1, r7, r0, lsl #22
    2138:	04033201 	streq	r3, [r3], #-513	; 0x201
    213c:	00000001 	andeq	r0, r0, r1
    2140:	00000019 	andeq	r0, r0, r9, lsl r0
    2144:	00000004 	andeq	r0, r0, r4
    2148:	00030801 	andeq	r0, r3, r1, lsl #16
    214c:	005b8d80 	subseq	r8, fp, r0, lsl #27
    2150:	02090000 	andeq	r0, r9, #0
    2154:	00000001 	andeq	r0, r0, r1
    2158:	02070000 	andeq	r0, r7, #0
    215c:	01000600 	tsteq	r0, r0, lsl #12
    2160:	01001200 	mrseq	r1, R8_usr
    2164:	01000800 	tsteq	r0, r0, lsl #16
	...

00002170 <.Lconst>:
    2170:	02090913 	andeq	r0, r9, #311296	; 0x4c000
    2174:	00000005 	andeq	r0, r0, r5
	...
    2184:	02000000 	andeq	r0, r0, #0
    2188:	009e0000 	addseq	r0, lr, r0
	...
    2198:	00040000 	andeq	r0, r4, r0
    219c:	00000600 	andeq	r0, r0, r0, lsl #12
    21a0:	00000600 	andeq	r0, r0, r0, lsl #12
	...
    21ac:	00000600 	andeq	r0, r0, r0, lsl #12
    21b0:	00f80050 	rscseq	r0, r8, r0, asr r0
    21b4:	00f80050 	rscseq	r0, r8, r0, asr r0
    21b8:	00000050 	andeq	r0, r0, r0, asr r0
    21bc:	00000000 	andeq	r0, r0, r0
    21c0:	8c000006 	stchi	0, cr0, [r0], {6}
    21c4:	fe009200 	cdp2	2, 0, cr9, cr0, cr0, {0}
    21c8:	4000a201 	andmi	sl, r0, r1, lsl #4
    21cc:	00000000 	andeq	r0, r0, r0
    21d0:	07000000 	streq	r0, [r0, -r0]
    21d4:	0092001e 	addseq	r0, r2, lr, lsl r0
    21d8:	0020005e 	eoreq	r0, r0, lr, asr r0
    21dc:	009400f8 	ldrsheq	r0, [r4], r8
    21e0:	000000f2 	strdeq	r0, [r0], -r2
    21e4:	00070000 	andeq	r0, r7, r0
    21e8:	9a006400 	bls	1b1f0 <_data_load+0x1894c>
    21ec:	cc00aa00 	stcgt	10, cr10, [r0], {-0}
    21f0:	80006000 	andhi	r6, r0, r0
    21f4:	00000000 	andeq	r0, r0, r0
    21f8:	00000200 	andeq	r0, r0, r0, lsl #4
    21fc:	00000006 	andeq	r0, r0, r6
	...
    220c:	7c000003 	stcvc	0, cr0, [r0], {3}
    2210:	00018300 	andeq	r8, r1, r0, lsl #6
	...
    221c:	03000000 	movweq	r0, #0
    2220:	01830000 	orreq	r0, r3, r0
    2224:	0000007c 	andeq	r0, r0, ip, ror r0
	...
    2230:	00040000 	andeq	r0, r4, r0
    2234:	78003000 	stmdavc	r0, {ip, sp}
    2238:	00003000 	andeq	r3, r0, r0
	...
    2244:	00100500 	andseq	r0, r0, r0, lsl #10
    2248:	007c0010 	rsbseq	r0, ip, r0, lsl r0
    224c:	00100010 	andseq	r0, r0, r0, lsl r0
	...
    2258:	c0010002 	andgt	r0, r1, r2
	...
    2268:	04000000 	streq	r0, [r0], #-0
    226c:	00100000 	andseq	r0, r0, r0
    2270:	00100010 	andseq	r0, r0, r0, lsl r0
	...
    227c:	00020000 	andeq	r0, r2, r0
    2280:	00008000 	andeq	r8, r0, r0
	...
    2290:	01000400 	tsteq	r0, r0, lsl #8
    2294:	001c00e0 	andseq	r0, ip, r0, ror #1
    2298:	00000003 	andeq	r0, r0, r3
	...
    22a4:	7c000005 	stcvc	0, cr0, [r0], {5}
    22a8:	82008200 	andhi	r8, r0, #0, 4
    22ac:	00007c00 	andeq	r7, r0, r0, lsl #24
    22b0:	00000000 	andeq	r0, r0, r0
    22b4:	05000000 	streq	r0, [r0, #-0]
    22b8:	00080000 	andeq	r0, r8, r0
    22bc:	00fe0004 	rscseq	r0, lr, r4
	...
    22c8:	00050000 	andeq	r0, r5, r0
    22cc:	c2008400 	andgt	r8, r0, #0, 8
    22d0:	9c00a200 	sfmls	f2, 1, [r0], {-0}
	...
    22dc:	00000500 	andeq	r0, r0, r0, lsl #10
    22e0:	00920082 	addseq	r0, r2, r2, lsl #1
    22e4:	006c0092 	mlseq	ip, r2, r0, r0
	...
    22f0:	38000005 	stmdacc	r0, {r0, r2}
    22f4:	22002c00 	andcs	r2, r0, #0, 24
    22f8:	0000fe00 	andeq	pc, r0, r0, lsl #28
    22fc:	00000000 	andeq	r0, r0, r0
    2300:	05000000 	streq	r0, [r0, #-0]
    2304:	009e0000 	addseq	r0, lr, r0
    2308:	00920092 	umullseq	r0, r2, r2, r0
    230c:	00000062 	andeq	r0, r0, r2, rrx
    2310:	00000000 	andeq	r0, r0, r0
    2314:	00050000 	andeq	r0, r5, r0
    2318:	92007c00 	andls	r7, r0, #0, 24
    231c:	74009200 	strvc	r9, [r0], #-512	; 0x200
	...
    2328:	00000500 	andeq	r0, r0, r0, lsl #10
    232c:	00c20002 	sbceq	r0, r2, r2
    2330:	000e0032 	andeq	r0, lr, r2, lsr r0
	...
    233c:	6c000005 	stcvs	0, cr0, [r0], {5}
    2340:	92009200 	andls	r9, r0, #0, 4
    2344:	00006c00 	andeq	r6, r0, r0, lsl #24
    2348:	00000000 	andeq	r0, r0, r0
    234c:	05000000 	streq	r0, [r0, #-0]
    2350:	009c0000 	addseq	r0, ip, r0
    2354:	00920092 	umullseq	r0, r2, r2, r0
    2358:	0000007c 	andeq	r0, r0, ip, ror r0
    235c:	00000000 	andeq	r0, r0, r0
    2360:	00020000 	andeq	r0, r2, r0
    2364:	00008800 	andeq	r8, r0, r0, lsl #16
	...
    2374:	01000200 	mrseq	r0, R8_usr
    2378:	000000c8 	andeq	r0, r0, r8, asr #1
	...
    2388:	10001005 	andne	r1, r0, r5
    238c:	28002800 	stmdacs	r0, {fp, sp}
    2390:	00004400 	andeq	r4, r0, r0, lsl #8
    2394:	00000000 	andeq	r0, r0, r0
    2398:	05000000 	streq	r0, [r0, #-0]
    239c:	00280000 	eoreq	r0, r8, r0
    23a0:	00280028 	eoreq	r0, r8, r8, lsr #32
    23a4:	00000028 	andeq	r0, r0, r8, lsr #32
    23a8:	00000000 	andeq	r0, r0, r0
    23ac:	00050000 	andeq	r0, r5, r0
    23b0:	28004400 	stmdacs	r0, {sl, lr}
    23b4:	10002800 	andne	r2, r0, r0, lsl #16
	...
    23c0:	00000500 	andeq	r0, r0, r0, lsl #10
    23c4:	00b20002 	adcseq	r0, r2, r2
    23c8:	000c0012 	andeq	r0, ip, r2, lsl r0
	...
    23d4:	f8000009 			; <UNDEFINED> instruction: 0xf8000009
    23d8:	72018400 	andvc	r8, r1, #0, 8
    23dc:	4a014a01 	bmi	54be8 <_data_load+0x52344>
    23e0:	42017a01 	andmi	r7, r1, #4096	; 0x1000
    23e4:	06003c00 	streq	r3, [r0], -r0, lsl #24
    23e8:	00f80000 	rscseq	r0, r8, r0
    23ec:	00220024 	eoreq	r0, r2, r4, lsr #32
    23f0:	00f80024 	rscseq	r0, r8, r4, lsr #32
    23f4:	00000000 	andeq	r0, r0, r0
    23f8:	00060000 	andeq	r0, r6, r0
    23fc:	9200fe00 	andls	pc, r0, #0, 28
    2400:	92009200 	andls	r9, r0, #0, 4
    2404:	00006c00 	andeq	r6, r0, r0, lsl #24
    2408:	00000000 	andeq	r0, r0, r0
    240c:	00000600 	andeq	r0, r0, r0, lsl #12
    2410:	0082007c 	addeq	r0, r2, ip, ror r0
    2414:	00820082 	addeq	r0, r2, r2, lsl #1
    2418:	00000044 	andeq	r0, r0, r4, asr #32
    241c:	00000000 	andeq	r0, r0, r0
    2420:	fe000006 	cdp2	0, 0, cr0, cr0, cr6, {0}
    2424:	82008200 	andhi	r8, r0, #0, 4
    2428:	7c00c600 	stcvc	6, cr12, [r0], {-0}
    242c:	00000000 	andeq	r0, r0, r0
    2430:	05000000 	streq	r0, [r0, #-0]
    2434:	00fe0000 	rscseq	r0, lr, r0
    2438:	00920092 	umullseq	r0, r2, r2, r0
    243c:	00000092 	muleq	r0, r2, r0
    2440:	00000000 	andeq	r0, r0, r0
    2444:	00050000 	andeq	r0, r5, r0
    2448:	1200fe00 	andne	pc, r0, #0, 28
    244c:	12001200 	andne	r1, r0, #0, 4
	...
    2458:	00000600 	andeq	r0, r0, r0, lsl #12
    245c:	00c6007c 	sbceq	r0, r6, ip, ror r0
    2460:	00920082 	addseq	r0, r2, r2, lsl #1
    2464:	000000f6 	strdeq	r0, [r0], -r6
    2468:	00000000 	andeq	r0, r0, r0
    246c:	fe000006 	cdp2	0, 0, cr0, cr0, cr6, {0}
    2470:	10001000 	andne	r1, r0, r0
    2474:	fe001000 	cdp2	0, 0, cr1, cr0, cr0, {0}
    2478:	00000000 	andeq	r0, r0, r0
    247c:	02000000 	andeq	r0, r0, #0
    2480:	00fe0000 	rscseq	r0, lr, r0
	...
    2490:	00040000 	andeq	r0, r4, r0
    2494:	80008000 	andhi	r8, r0, r0
    2498:	00007e00 	andeq	r7, r0, r0, lsl #28
	...
    24a4:	00000500 	andeq	r0, r0, r0, lsl #10
    24a8:	001000fe 	ldrsheq	r0, [r0], -lr
    24ac:	00c2002c 	sbceq	r0, r2, ip, lsr #32
	...
    24b8:	fe000005 	cdp2	0, 0, cr0, cr0, cr5, {0}
    24bc:	80008000 	andhi	r8, r0, r0
    24c0:	00008000 	andeq	r8, r0, r0
    24c4:	00000000 	andeq	r0, r0, r0
    24c8:	08000000 	stmdaeq	r0, {}	; <UNPREDICTABLE>
    24cc:	00fe0000 	rscseq	r0, lr, r0
    24d0:	00180006 	andseq	r0, r8, r6
    24d4:	001800e0 	andseq	r0, r8, r0, ror #1
    24d8:	00fe0006 	rscseq	r0, lr, r6
    24dc:	00060000 	andeq	r0, r6, r0
    24e0:	0600fe00 	streq	pc, [r0], -r0, lsl #28
    24e4:	60001800 	andvs	r1, r0, r0, lsl #16
    24e8:	0000fe00 	andeq	pc, r0, r0, lsl #28
    24ec:	00000000 	andeq	r0, r0, r0
    24f0:	00000600 	andeq	r0, r0, r0, lsl #12
    24f4:	0082007c 	addeq	r0, r2, ip, ror r0
    24f8:	00820082 	addeq	r0, r2, r2, lsl #1
    24fc:	0000007c 	andeq	r0, r0, ip, ror r0
    2500:	00000000 	andeq	r0, r0, r0
    2504:	fe000005 	cdp2	0, 0, cr0, cr0, cr5, {0}
    2508:	12001200 	andne	r1, r0, #0, 4
    250c:	00000c00 	andeq	r0, r0, r0, lsl #24
    2510:	00000000 	andeq	r0, r0, r0
    2514:	07000000 	streq	r0, [r0, -r0]
    2518:	007c0000 	rsbseq	r0, ip, r0
    251c:	00820082 	addeq	r0, r2, r2, lsl #1
    2520:	00fc00c2 	rscseq	r0, ip, r2, asr #1
    2524:	00000100 	andeq	r0, r0, r0, lsl #2
    2528:	00050000 	andeq	r0, r5, r0
    252c:	1200fe00 	andne	pc, r0, #0, 28
    2530:	ec001200 	sfm	f1, 4, [r0], {-0}
	...
    253c:	00000500 	andeq	r0, r0, r0, lsl #10
    2540:	009200cc 	addseq	r0, r2, ip, asr #1
    2544:	00660092 	mlseq	r6, r2, r0, r0
	...
    2550:	02000006 	andeq	r0, r0, #6
    2554:	fe000200 	cdp2	2, 0, cr0, cr0, cr0, {0}
    2558:	02000200 	andeq	r0, r0, #0, 4
    255c:	00000000 	andeq	r0, r0, r0
    2560:	06000000 	streq	r0, [r0], -r0
    2564:	007e0000 	rsbseq	r0, lr, r0
    2568:	00800080 	addeq	r0, r0, r0, lsl #1
    256c:	007e0080 	rsbseq	r0, lr, r0, lsl #1
    2570:	00000000 	andeq	r0, r0, r0
    2574:	00070000 	andeq	r0, r7, r0
    2578:	3c000600 	stccc	6, cr0, [r0], {-0}
    257c:	e000e000 	and	lr, r0, r0
    2580:	06001c00 	streq	r1, [r0], -r0, lsl #24
    2584:	00000000 	andeq	r0, r0, r0
    2588:	00000600 	andeq	r0, r0, r0, lsl #12
    258c:	00e0001e 	rsceq	r0, r0, lr, lsl r0
    2590:	00e0003e 	rsceq	r0, r0, lr, lsr r0
    2594:	0000001e 	andeq	r0, r0, lr, lsl r0
    2598:	00000000 	andeq	r0, r0, r0
    259c:	82000006 	andhi	r0, r0, #6
    25a0:	38006400 	stmdacc	r0, {sl, sp, lr}
    25a4:	82006c00 	andhi	r6, r0, #0, 24
    25a8:	00000000 	andeq	r0, r0, r0
    25ac:	06000000 	streq	r0, [r0], -r0
    25b0:	00020000 	andeq	r0, r2, r0
    25b4:	00f0000c 	rscseq	r0, r0, ip
    25b8:	0002000c 	andeq	r0, r2, ip
    25bc:	00000000 	andeq	r0, r0, r0
    25c0:	00060000 	andeq	r0, r6, r0
    25c4:	e2008200 	and	r8, r0, #0, 4
    25c8:	8e009200 	cdphi	2, 0, cr9, cr0, cr0, {0}
    25cc:	00008200 	andeq	r8, r0, r0, lsl #4
    25d0:	00000000 	andeq	r0, r0, r0
    25d4:	00000300 	andeq	r0, r0, r0, lsl #6
    25d8:	010101ff 	strdeq	r0, [r1, -pc]
	...
    25e8:	0e000104 	adfeqs	f0, f0, f4
    25ec:	80007000 	andhi	r7, r0, r0
    25f0:	00000001 	andeq	r0, r0, r1
    25f4:	00000000 	andeq	r0, r0, r0
    25f8:	02000000 	andeq	r0, r0, #0
    25fc:	01ff0101 	mvnseq	r0, r1, lsl #2
	...
    260c:	00040000 	andeq	r0, r4, r0
    2610:	0c001800 	stceq	8, cr1, [r0], {-0}
    2614:	00001800 	andeq	r1, r0, r0, lsl #16
	...
    2620:	01000600 	tsteq	r0, r0, lsl #12
    2624:	01000100 	mrseq	r0, (UNDEF: 16)
    2628:	01000100 	mrseq	r0, (UNDEF: 16)
    262c:	00000100 	andeq	r0, r0, r0, lsl #2
    2630:	00000000 	andeq	r0, r0, r0
    2634:	01000003 	tsteq	r0, r3
    2638:	00000200 	andeq	r0, r0, r0, lsl #4
	...
    2644:	05000000 	streq	r0, [r0, #-0]
    2648:	00e80000 	rsceq	r0, r8, r0
    264c:	00a800a8 	adceq	r0, r8, r8, lsr #1
    2650:	000000f8 	strdeq	r0, [r0], -r8
    2654:	00000000 	andeq	r0, r0, r0
    2658:	00050000 	andeq	r0, r5, r0
    265c:	8800fe00 	stmdahi	r0, {r9, sl, fp, ip, sp, lr, pc}
    2660:	70008800 	andvc	r8, r0, r0, lsl #16
	...
    266c:	00000500 	andeq	r0, r0, r0, lsl #10
    2670:	00880070 	addeq	r0, r8, r0, ror r0
    2674:	00880088 	addeq	r0, r8, r8, lsl #1
	...
    2680:	70000005 	andvc	r0, r0, r5
    2684:	88008800 	stmdahi	r0, {fp, pc}
    2688:	0000fe00 	andeq	pc, r0, r0, lsl #28
    268c:	00000000 	andeq	r0, r0, r0
    2690:	05000000 	streq	r0, [r0, #-0]
    2694:	00700000 	rsbseq	r0, r0, r0
    2698:	00a800a8 	adceq	r0, r8, r8, lsr #1
    269c:	000000b0 	strheq	r0, [r0], -r0	; <UNPREDICTABLE>
    26a0:	00000000 	andeq	r0, r0, r0
    26a4:	08040000 	stmdaeq	r4, {}	; <UNPREDICTABLE>
    26a8:	0a00fe00 	beq	41eb0 <_data_load+0x3f60c>
    26ac:	00000200 	andeq	r0, r0, r0, lsl #4
	...
    26b8:	00000500 	andeq	r0, r0, r0, lsl #10
    26bc:	01480030 	cmpeq	r8, r0, lsr r0
    26c0:	01f80148 	mvnseq	r0, r8, asr #2
	...
    26cc:	fe000005 	cdp2	0, 0, cr0, cr0, cr5, {0}
    26d0:	08000800 	stmdaeq	r0, {fp}
    26d4:	0000f800 	andeq	pc, r0, r0, lsl #16
    26d8:	00000000 	andeq	r0, r0, r0
    26dc:	02000000 	andeq	r0, r0, #0
    26e0:	00fa0000 	rscseq	r0, sl, r0
	...
    26f0:	00020000 	andeq	r0, r2, r0
    26f4:	0001fa01 	andeq	pc, r1, r1, lsl #20
	...
    2704:	00000500 	andeq	r0, r0, r0, lsl #10
    2708:	002000fe 	strdeq	r0, [r0], -lr	; <UNPREDICTABLE>
    270c:	00880050 	addeq	r0, r8, r0, asr r0
	...
    2718:	fe000002 	cdp2	0, 0, cr0, cr0, cr2, {0}
	...
    2728:	06000000 	streq	r0, [r0], -r0
    272c:	00f80000 	rscseq	r0, r8, r0
    2730:	00f80008 	rscseq	r0, r8, r8
    2734:	00f80008 	rscseq	r0, r8, r8
    2738:	00000000 	andeq	r0, r0, r0
    273c:	00050000 	andeq	r0, r5, r0
    2740:	0800f800 	stmdaeq	r0, {fp, ip, sp, lr, pc}
    2744:	f8000800 			; <UNDEFINED> instruction: 0xf8000800
	...
    2750:	00000500 	andeq	r0, r0, r0, lsl #10
    2754:	00880070 	addeq	r0, r8, r0, ror r0
    2758:	00700088 	rsbseq	r0, r0, r8, lsl #1
	...
    2764:	f8000005 			; <UNDEFINED> instruction: 0xf8000005
    2768:	48004801 	stmdami	r0, {r0, fp, lr}
    276c:	00003000 	andeq	r3, r0, r0
    2770:	00000000 	andeq	r0, r0, r0
    2774:	05000000 	streq	r0, [r0, #-0]
    2778:	00300000 	eorseq	r0, r0, r0
    277c:	00480048 	subeq	r0, r8, r8, asr #32
    2780:	000001f8 	strdeq	r0, [r0], -r8
    2784:	00000000 	andeq	r0, r0, r0
    2788:	00040000 	andeq	r0, r4, r0
    278c:	0800f800 	stmdaeq	r0, {fp, ip, sp, lr, pc}
    2790:	00000800 	andeq	r0, r0, r0, lsl #16
	...
    279c:	00000400 	andeq	r0, r0, r0, lsl #8
    27a0:	00a80098 	umlaleq	r0, r8, r8, r0
    27a4:	000000e8 	andeq	r0, r0, r8, ror #1
	...
    27b0:	08000004 	stmdaeq	r0, {r2}
    27b4:	8800fc00 	stmdahi	r0, {sl, fp, ip, sp, lr, pc}
	...
    27c0:	05000000 	streq	r0, [r0, #-0]
    27c4:	00780000 	rsbseq	r0, r8, r0
    27c8:	00800080 	addeq	r0, r0, r0, lsl #1
    27cc:	000000f8 	strdeq	r0, [r0], -r8
    27d0:	00000000 	andeq	r0, r0, r0
    27d4:	00040000 	andeq	r0, r4, r0
    27d8:	c0003800 	andgt	r3, r0, r0, lsl #16
    27dc:	00003800 	andeq	r3, r0, r0, lsl #16
	...
    27e8:	00000600 	andeq	r0, r0, r0, lsl #12
    27ec:	00c00078 	sbceq	r0, r0, r8, ror r0
    27f0:	00c00038 	sbceq	r0, r0, r8, lsr r0
    27f4:	00000078 	andeq	r0, r0, r8, ror r0
    27f8:	00000000 	andeq	r0, r0, r0
    27fc:	88000005 	stmdahi	r0, {r0, r2}
    2800:	70007000 	andvc	r7, r0, r0
    2804:	00008800 	andeq	r8, r0, r0, lsl #16
    2808:	00000000 	andeq	r0, r0, r0
    280c:	05000000 	streq	r0, [r0, #-0]
    2810:	00380000 	eorseq	r0, r8, r0
    2814:	01400140 	cmpeq	r0, r0, asr #2
    2818:	000000f8 	strdeq	r0, [r0], -r8
    281c:	00000000 	andeq	r0, r0, r0
    2820:	00050000 	andeq	r0, r5, r0
    2824:	e800c800 	stmda	r0, {fp, lr, pc}
    2828:	8800b800 	stmdahi	r0, {fp, ip, sp, pc}
	...
    2834:	00100400 	andseq	r0, r0, r0, lsl #8
    2838:	01ef0038 	mvneq	r0, r8, lsr r0
    283c:	00000101 	andeq	r0, r0, r1, lsl #2
	...
    2848:	00000003 	andeq	r0, r0, r3
    284c:	0001ff00 	andeq	pc, r1, r0, lsl #30
	...
    2858:	04000000 	streq	r0, [r0], #-0
    285c:	01c70101 	biceq	r0, r7, r1, lsl #2
    2860:	00100038 	andseq	r0, r0, r8, lsr r0
	...
    286c:	0c050000 	stceq	0, cr0, [r5], {-0}
    2870:	0c000400 	cfstrseq	mvf0, [r0], {-0}
    2874:	0c000800 	stceq	8, cr0, [r0], {-0}
	...
    2880:	01fe0300 	mvnseq	r0, r0, lsl #6
    2884:	01fe0102 	mvnseq	r0, r2, lsl #2
	...

00002894 <.Lswitch.table>:
    2894:	2009c000 	andcs	ip, r9, r0
    2898:	2009c020 	andcs	ip, r9, r0, lsr #32
    289c:	2009c040 	andcs	ip, r9, r0, asr #32
    28a0:	2009c060 	andcs	ip, r9, r0, rrx

Disassembly of section .bss:

10000034 <_bss>:
10000034:	00000000 	andeq	r0, r0, r0

10000038 <__STACK_LIMIT>:
10000038:	00000000 	andeq	r0, r0, r0

Disassembly of section .ARM.attributes:

00000000 <.ARM.attributes>:
   0:	00002841 	andeq	r2, r0, r1, asr #16
   4:	61656100 	cmnvs	r5, r0, lsl #2
   8:	01006962 	tsteq	r0, r2, ror #18
   c:	0000001e 	andeq	r0, r0, lr, lsl r0
  10:	524f4305 	subpl	r4, pc, #335544320	; 0x14000000
  14:	2d584554 	cfldr64cs	mvdx4, [r8, #-336]	; 0xfffffeb0
  18:	0600334d 	streq	r3, [r0], -sp, asr #6
  1c:	094d070a 	stmdbeq	sp, {r1, r3, r8, r9, sl}^
  20:	15011402 	strne	r1, [r1, #-1026]	; 0x402
  24:	18031701 	stmdane	r3, {r0, r8, r9, sl, ip}
  28:	Address 0x0000000000000028 is out of bounds.

