
/home/travis/build/hackndev/zinc/build/app_mbed_lcd.elf:     file format elf32-littlearm


Disassembly of section .data:

10000000 <_data>:
	...

Disassembly of section .text:

00000000 <ISRVectors>:
       0:	10002000 	andne	r2, r0, r0
       4:	000000cd 	andeq	r0, r0, sp, asr #1
       8:	00001aa5 	andeq	r1, r0, r5, lsr #21
       c:	00001aa5 	andeq	r1, r0, r5, lsr #21
      10:	00001aa5 	andeq	r1, r0, r5, lsr #21
      14:	00001aa5 	andeq	r1, r0, r5, lsr #21
      18:	00001aa5 	andeq	r1, r0, r5, lsr #21
      1c:	efffa9e9 	svc	0x00ffa9e9
	...
      2c:	00001b45 	andeq	r1, r0, r5, asr #22
	...
      38:	00001b1d 	andeq	r1, r0, sp, lsl fp
      3c:	00001af5 	strdeq	r1, [r0], -r5

00000040 <NVICVectors>:
      40:	00001aa5 	andeq	r1, r0, r5, lsr #21
      44:	00001aa5 	andeq	r1, r0, r5, lsr #21
      48:	00001aa5 	andeq	r1, r0, r5, lsr #21
      4c:	00001aa5 	andeq	r1, r0, r5, lsr #21
      50:	00001aa5 	andeq	r1, r0, r5, lsr #21
      54:	00001aa5 	andeq	r1, r0, r5, lsr #21
      58:	00001aa5 	andeq	r1, r0, r5, lsr #21
      5c:	00001aa5 	andeq	r1, r0, r5, lsr #21
      60:	00001aa5 	andeq	r1, r0, r5, lsr #21
      64:	00001aa5 	andeq	r1, r0, r5, lsr #21
      68:	00001aa5 	andeq	r1, r0, r5, lsr #21
      6c:	00001aa5 	andeq	r1, r0, r5, lsr #21
      70:	00001aa5 	andeq	r1, r0, r5, lsr #21
      74:	00001aa5 	andeq	r1, r0, r5, lsr #21
      78:	00001aa5 	andeq	r1, r0, r5, lsr #21
      7c:	00001aa5 	andeq	r1, r0, r5, lsr #21
      80:	00001aa5 	andeq	r1, r0, r5, lsr #21
      84:	00001aa5 	andeq	r1, r0, r5, lsr #21
      88:	00001aa5 	andeq	r1, r0, r5, lsr #21
      8c:	00001aa5 	andeq	r1, r0, r5, lsr #21
      90:	00001aa5 	andeq	r1, r0, r5, lsr #21
      94:	00001aa5 	andeq	r1, r0, r5, lsr #21
      98:	00001aa5 	andeq	r1, r0, r5, lsr #21
      9c:	00001aa5 	andeq	r1, r0, r5, lsr #21
      a0:	00001aa5 	andeq	r1, r0, r5, lsr #21
      a4:	00001aa5 	andeq	r1, r0, r5, lsr #21
      a8:	00001aa5 	andeq	r1, r0, r5, lsr #21
      ac:	00001aa5 	andeq	r1, r0, r5, lsr #21
      b0:	00001aa5 	andeq	r1, r0, r5, lsr #21
      b4:	00001aa5 	andeq	r1, r0, r5, lsr #21
      b8:	00001aa5 	andeq	r1, r0, r5, lsr #21
      bc:	00001aa5 	andeq	r1, r0, r5, lsr #21
      c0:	00001aa5 	andeq	r1, r0, r5, lsr #21
      c4:	00001aa5 	andeq	r1, r0, r5, lsr #21
      c8:	00001aa5 	andeq	r1, r0, r5, lsr #21

000000cc <main>:
      cc:	e92d 4ff0 	stmdb	sp!, {r4, r5, r6, r7, r8, r9, sl, fp, lr}
      d0:	f5ad 6d9d 	sub.w	sp, sp, #1256	; 0x4e8
      d4:	b081      	sub	sp, #4
      d6:	f240 0038 	movw	r0, #56	; 0x38
      da:	f240 013c 	movw	r1, #60	; 0x3c
      de:	f2c1 0000 	movt	r0, #4096	; 0x1000
      e2:	f2c1 0100 	movt	r1, #4096	; 0x1000
      e6:	6001      	str	r1, [r0, #0]
      e8:	f240 0000 	movw	r0, #0
      ec:	f240 0134 	movw	r1, #52	; 0x34
      f0:	f2c1 0000 	movt	r0, #4096	; 0x1000
      f4:	f2c1 0100 	movt	r1, #4096	; 0x1000
      f8:	4288      	cmp	r0, r1
      fa:	d209      	bcs.n	110 <main+0x44>
      fc:	f242 72d4 	movw	r2, #10196	; 0x27d4
     100:	f2c0 0200 	movt	r2, #0
     104:	f852 3b04 	ldr.w	r3, [r2], #4
     108:	f840 3b04 	str.w	r3, [r0], #4
     10c:	4288      	cmp	r0, r1
     10e:	d3f9      	bcc.n	104 <main+0x38>
     110:	f240 0034 	movw	r0, #52	; 0x34
     114:	f240 0134 	movw	r1, #52	; 0x34
     118:	f2c1 0000 	movt	r0, #4096	; 0x1000
     11c:	f2c1 0100 	movt	r1, #4096	; 0x1000
     120:	4288      	cmp	r0, r1
     122:	d204      	bcs.n	12e <main+0x62>
     124:	2200      	movs	r2, #0
     126:	f840 2b04 	str.w	r2, [r0], #4
     12a:	4288      	cmp	r0, r1
     12c:	d3fb      	bcc.n	126 <main+0x5a>
     12e:	f24c 10a0 	movw	r0, #49568	; 0xc1a0
     132:	2120      	movs	r1, #32
     134:	f2c4 000f 	movt	r0, #16399	; 0x400f
     138:	6001      	str	r1, [r0, #0]
     13a:	6801      	ldr	r1, [r0, #0]
     13c:	f011 0f40 	tst.w	r1, #64	; 0x40
     140:	d0fb      	beq.n	13a <main+0x6e>
     142:	f24c 0000 	movw	r0, #49152	; 0xc000
     146:	f44f 4180 	mov.w	r1, #16384	; 0x4000
     14a:	2231      	movs	r2, #49	; 0x31
     14c:	23aa      	movs	r3, #170	; 0xaa
     14e:	2755      	movs	r7, #85	; 0x55
     150:	f2c4 000f 	movt	r0, #16399	; 0x400f
     154:	f2c0 0202 	movt	r2, #2
     158:	6001      	str	r1, [r0, #0]
     15a:	f24c 100c 	movw	r0, #49420	; 0xc10c
     15e:	2101      	movs	r1, #1
     160:	f2c4 000f 	movt	r0, #16399	; 0x400f
     164:	6001      	str	r1, [r0, #0]
     166:	f24c 0084 	movw	r0, #49284	; 0xc084
     16a:	f2c4 000f 	movt	r0, #16399	; 0x400f
     16e:	6002      	str	r2, [r0, #0]
     170:	f24c 008c 	movw	r0, #49292	; 0xc08c
     174:	f24c 0280 	movw	r2, #49280	; 0xc080
     178:	f2c4 000f 	movt	r0, #16399	; 0x400f
     17c:	f2c4 020f 	movt	r2, #16399	; 0x400f
     180:	6003      	str	r3, [r0, #0]
     182:	6007      	str	r7, [r0, #0]
     184:	6011      	str	r1, [r2, #0]
     186:	f24c 0188 	movw	r1, #49288	; 0xc088
     18a:	6003      	str	r3, [r0, #0]
     18c:	6007      	str	r7, [r0, #0]
     18e:	f2c4 010f 	movt	r1, #16399	; 0x400f
     192:	680b      	ldr	r3, [r1, #0]
     194:	f013 7f80 	tst.w	r3, #16777216	; 0x1000000
     198:	d0fb      	beq.n	192 <main+0xc6>
     19a:	f24c 1304 	movw	r3, #49412	; 0xc104
     19e:	2703      	movs	r7, #3
     1a0:	f2c4 030f 	movt	r3, #16399	; 0x400f
     1a4:	601f      	str	r7, [r3, #0]
     1a6:	680b      	ldr	r3, [r1, #0]
     1a8:	f013 6f80 	tst.w	r3, #67108864	; 0x4000000
     1ac:	d0fb      	beq.n	1a6 <main+0xda>
     1ae:	2303      	movs	r3, #3
     1b0:	6013      	str	r3, [r2, #0]
     1b2:	22aa      	movs	r2, #170	; 0xaa
     1b4:	6002      	str	r2, [r0, #0]
     1b6:	2255      	movs	r2, #85	; 0x55
     1b8:	6002      	str	r2, [r0, #0]
     1ba:	6808      	ldr	r0, [r1, #0]
     1bc:	f010 7f00 	tst.w	r0, #33554432	; 0x2000000
     1c0:	d0fb      	beq.n	1ba <main+0xee>
     1c2:	f24c 00c4 	movw	r0, #49348	; 0xc0c4
     1c6:	2300      	movs	r3, #0
     1c8:	2602      	movs	r6, #2
     1ca:	2718      	movs	r7, #24
     1cc:	f240 0500 	movw	r5, #0
     1d0:	f641 3400 	movw	r4, #6912	; 0x1b00
     1d4:	f2c4 000f 	movt	r0, #16399	; 0x400f
     1d8:	f2c4 0503 	movt	r5, #16387	; 0x4003
     1dc:	f6c4 24b7 	movt	r4, #19127	; 0x4ab7
     1e0:	6801      	ldr	r1, [r0, #0]
     1e2:	f041 0104 	orr.w	r1, r1, #4
     1e6:	6001      	str	r1, [r0, #0]
     1e8:	f24c 11a8 	movw	r1, #49576	; 0xc1a8
     1ec:	f2c4 010f 	movt	r1, #16399	; 0x400f
     1f0:	680a      	ldr	r2, [r1, #0]
     1f2:	f022 020c 	bic.w	r2, r2, #12
     1f6:	600a      	str	r2, [r1, #0]
     1f8:	f248 0200 	movw	r2, #32768	; 0x8000
     1fc:	f2c4 0200 	movt	r2, #16384	; 0x4000
     200:	6393      	str	r3, [r2, #56]	; 0x38
     202:	6056      	str	r6, [r2, #4]
     204:	60d7      	str	r7, [r2, #12]
     206:	2701      	movs	r7, #1
     208:	6057      	str	r7, [r2, #4]
     20a:	928e      	str	r2, [sp, #568]	; 0x238
     20c:	6802      	ldr	r2, [r0, #0]
     20e:	f442 6280 	orr.w	r2, r2, #1024	; 0x400
     212:	6002      	str	r2, [r0, #0]
     214:	6808      	ldr	r0, [r1, #0]
     216:	f367 208b 	bfi	r0, r7, #10, #2
     21a:	f24e 1700 	movw	r7, #57600	; 0xe100
     21e:	6008      	str	r0, [r1, #0]
     220:	21c7      	movs	r1, #199	; 0xc7
     222:	f2c0 57f5 	movt	r7, #1525	; 0x5f5
     226:	6868      	ldr	r0, [r5, #4]
     228:	f000 000d 	and.w	r0, r0, #13
     22c:	6068      	str	r0, [r5, #4]
     22e:	6828      	ldr	r0, [r5, #0]
     230:	f361 0007 	bfi	r0, r1, #0, #8
     234:	6028      	str	r0, [r5, #0]
     236:	606b      	str	r3, [r5, #4]
     238:	6868      	ldr	r0, [r5, #4]
     23a:	f040 0002 	orr.w	r0, r0, #2
     23e:	6068      	str	r0, [r5, #4]
     240:	6868      	ldr	r0, [r5, #4]
     242:	f000 000d 	and.w	r0, r0, #13
     246:	6068      	str	r0, [r5, #4]
     248:	e000      	b.n	24c <main+0x180>
     24a:	3602      	adds	r6, #2
     24c:	fbb7 f0f6 	udiv	r0, r7, r6
     250:	f001 fd38 	bl	1cc4 <__aeabi_ui2f>
     254:	4621      	mov	r1, r4
     256:	f001 fe41 	bl	1edc <__aeabi_fdiv>
     25a:	f04f 517c 	mov.w	r1, #1056964608	; 0x3f000000
     25e:	f001 fc81 	bl	1b64 <__addsf3>
     262:	f001 fed7 	bl	2014 <__aeabi_f2uiz>
     266:	28ff      	cmp	r0, #255	; 0xff
     268:	d8ef      	bhi.n	24a <main+0x17e>
     26a:	f06f 01ff 	mvn.w	r1, #255	; 0xff
     26e:	612e      	str	r6, [r5, #16]
     270:	eb01 2000 	add.w	r0, r1, r0, lsl #8
     274:	6829      	ldr	r1, [r5, #0]
     276:	b2c9      	uxtb	r1, r1
     278:	4308      	orrs	r0, r1
     27a:	6028      	str	r0, [r5, #0]
     27c:	6868      	ldr	r0, [r5, #4]
     27e:	f040 0002 	orr.w	r0, r0, #2
     282:	6068      	str	r0, [r5, #4]
     284:	f242 0060 	movw	r0, #8288	; 0x2060
     288:	f2c0 0000 	movt	r0, #0
     28c:	f890 1020 	ldrb.w	r1, [r0, #32]
     290:	2900      	cmp	r1, #0
     292:	d15c      	bne.n	34e <main+0x282>
     294:	f890 3021 	ldrb.w	r3, [r0, #33]	; 0x21
     298:	f890 1022 	ldrb.w	r1, [r0, #34]	; 0x22
     29c:	f890 2023 	ldrb.w	r2, [r0, #35]	; 0x23
     2a0:	b2db      	uxtb	r3, r3
     2a2:	2b03      	cmp	r3, #3
     2a4:	d90a      	bls.n	2bc <main+0x1f0>
     2a6:	f001 03fe 	and.w	r3, r1, #254	; 0xfe
     2aa:	2b1c      	cmp	r3, #28
     2ac:	f040 85ef 	bne.w	e8e <main+0xdc2>
     2b0:	f24c 0324 	movw	r3, #49188	; 0xc024
     2b4:	3910      	subs	r1, #16
     2b6:	f2c4 0302 	movt	r3, #16386	; 0x4002
     2ba:	e03c      	b.n	336 <main+0x26a>
     2bc:	e8df f003 	tbb	[pc, r3]
     2c0:	1b120a02 	blne	482ad0 <_data_load+0x4802fc>
     2c4:	b2cb      	uxtb	r3, r1
     2c6:	2b10      	cmp	r3, #16
     2c8:	d221      	bcs.n	30e <main+0x242>
     2ca:	f24c 0300 	movw	r3, #49152	; 0xc000
     2ce:	f2c4 0302 	movt	r3, #16386	; 0x4002
     2d2:	e030      	b.n	336 <main+0x26a>
     2d4:	b2cb      	uxtb	r3, r1
     2d6:	2b10      	cmp	r3, #16
     2d8:	d223      	bcs.n	322 <main+0x256>
     2da:	f24c 0308 	movw	r3, #49160	; 0xc008
     2de:	f2c4 0302 	movt	r3, #16386	; 0x4002
     2e2:	e028      	b.n	336 <main+0x26a>
     2e4:	b2cb      	uxtb	r3, r1
     2e6:	2b0e      	cmp	r3, #14
     2e8:	f080 85d2 	bcs.w	e90 <main+0xdc4>
     2ec:	f24c 0310 	movw	r3, #49168	; 0xc010
     2f0:	f2c4 0302 	movt	r3, #16386	; 0x4002
     2f4:	e01f      	b.n	336 <main+0x26a>
     2f6:	f1a1 0319 	sub.w	r3, r1, #25
     2fa:	b2db      	uxtb	r3, r3
     2fc:	2b02      	cmp	r3, #2
     2fe:	f080 85ca 	bcs.w	e96 <main+0xdca>
     302:	f24c 031c 	movw	r3, #49180	; 0xc01c
     306:	3910      	subs	r1, #16
     308:	f2c4 0302 	movt	r3, #16386	; 0x4002
     30c:	e013      	b.n	336 <main+0x26a>
     30e:	3910      	subs	r1, #16
     310:	b2cb      	uxtb	r3, r1
     312:	2b0f      	cmp	r3, #15
     314:	f080 85c2 	bcs.w	e9c <main+0xdd0>
     318:	f24c 0304 	movw	r3, #49156	; 0xc004
     31c:	f2c4 0302 	movt	r3, #16386	; 0x4002
     320:	e009      	b.n	336 <main+0x26a>
     322:	f001 03f0 	and.w	r3, r1, #240	; 0xf0
     326:	2b10      	cmp	r3, #16
     328:	f040 85b2 	bne.w	e90 <main+0xdc4>
     32c:	f24c 030c 	movw	r3, #49164	; 0xc00c
     330:	3910      	subs	r1, #16
     332:	f2c4 0302 	movt	r3, #16386	; 0x4002
     336:	0049      	lsls	r1, r1, #1
     338:	b2d2      	uxtb	r2, r2
     33a:	2703      	movs	r7, #3
     33c:	b2c9      	uxtb	r1, r1
     33e:	408a      	lsls	r2, r1
     340:	fa07 f101 	lsl.w	r1, r7, r1
     344:	681f      	ldr	r7, [r3, #0]
     346:	ea27 0101 	bic.w	r1, r7, r1
     34a:	4311      	orrs	r1, r2
     34c:	6019      	str	r1, [r3, #0]
     34e:	f890 1024 	ldrb.w	r1, [r0, #36]	; 0x24
     352:	2900      	cmp	r1, #0
     354:	d15c      	bne.n	410 <main+0x344>
     356:	f890 3025 	ldrb.w	r3, [r0, #37]	; 0x25
     35a:	f890 1026 	ldrb.w	r1, [r0, #38]	; 0x26
     35e:	f890 2027 	ldrb.w	r2, [r0, #39]	; 0x27
     362:	b2db      	uxtb	r3, r3
     364:	2b03      	cmp	r3, #3
     366:	d90a      	bls.n	37e <main+0x2b2>
     368:	f001 03fe 	and.w	r3, r1, #254	; 0xfe
     36c:	2b1c      	cmp	r3, #28
     36e:	f040 858e 	bne.w	e8e <main+0xdc2>
     372:	f24c 0324 	movw	r3, #49188	; 0xc024
     376:	3910      	subs	r1, #16
     378:	f2c4 0302 	movt	r3, #16386	; 0x4002
     37c:	e03c      	b.n	3f8 <main+0x32c>
     37e:	e8df f003 	tbb	[pc, r3]
     382:	1b120a02 	blne	482b92 <_data_load+0x4803be>
     386:	b2cb      	uxtb	r3, r1
     388:	2b10      	cmp	r3, #16
     38a:	d221      	bcs.n	3d0 <main+0x304>
     38c:	f24c 0300 	movw	r3, #49152	; 0xc000
     390:	f2c4 0302 	movt	r3, #16386	; 0x4002
     394:	e030      	b.n	3f8 <main+0x32c>
     396:	b2cb      	uxtb	r3, r1
     398:	2b10      	cmp	r3, #16
     39a:	d223      	bcs.n	3e4 <main+0x318>
     39c:	f24c 0308 	movw	r3, #49160	; 0xc008
     3a0:	f2c4 0302 	movt	r3, #16386	; 0x4002
     3a4:	e028      	b.n	3f8 <main+0x32c>
     3a6:	b2cb      	uxtb	r3, r1
     3a8:	2b0e      	cmp	r3, #14
     3aa:	f080 8572 	bcs.w	e92 <main+0xdc6>
     3ae:	f24c 0310 	movw	r3, #49168	; 0xc010
     3b2:	f2c4 0302 	movt	r3, #16386	; 0x4002
     3b6:	e01f      	b.n	3f8 <main+0x32c>
     3b8:	f1a1 0319 	sub.w	r3, r1, #25
     3bc:	b2db      	uxtb	r3, r3
     3be:	2b02      	cmp	r3, #2
     3c0:	f080 856a 	bcs.w	e98 <main+0xdcc>
     3c4:	f24c 031c 	movw	r3, #49180	; 0xc01c
     3c8:	3910      	subs	r1, #16
     3ca:	f2c4 0302 	movt	r3, #16386	; 0x4002
     3ce:	e013      	b.n	3f8 <main+0x32c>
     3d0:	3910      	subs	r1, #16
     3d2:	b2cb      	uxtb	r3, r1
     3d4:	2b0f      	cmp	r3, #15
     3d6:	f080 8562 	bcs.w	e9e <main+0xdd2>
     3da:	f24c 0304 	movw	r3, #49156	; 0xc004
     3de:	f2c4 0302 	movt	r3, #16386	; 0x4002
     3e2:	e009      	b.n	3f8 <main+0x32c>
     3e4:	f001 03f0 	and.w	r3, r1, #240	; 0xf0
     3e8:	2b10      	cmp	r3, #16
     3ea:	f040 8552 	bne.w	e92 <main+0xdc6>
     3ee:	f24c 030c 	movw	r3, #49164	; 0xc00c
     3f2:	3910      	subs	r1, #16
     3f4:	f2c4 0302 	movt	r3, #16386	; 0x4002
     3f8:	0049      	lsls	r1, r1, #1
     3fa:	b2d2      	uxtb	r2, r2
     3fc:	2703      	movs	r7, #3
     3fe:	b2c9      	uxtb	r1, r1
     400:	408a      	lsls	r2, r1
     402:	fa07 f101 	lsl.w	r1, r7, r1
     406:	681f      	ldr	r7, [r3, #0]
     408:	ea27 0101 	bic.w	r1, r7, r1
     40c:	4311      	orrs	r1, r2
     40e:	6019      	str	r1, [r3, #0]
     410:	f890 1028 	ldrb.w	r1, [r0, #40]	; 0x28
     414:	2900      	cmp	r1, #0
     416:	d15c      	bne.n	4d2 <main+0x406>
     418:	f890 3029 	ldrb.w	r3, [r0, #41]	; 0x29
     41c:	f890 102a 	ldrb.w	r1, [r0, #42]	; 0x2a
     420:	f890 202b 	ldrb.w	r2, [r0, #43]	; 0x2b
     424:	b2db      	uxtb	r3, r3
     426:	2b03      	cmp	r3, #3
     428:	d90a      	bls.n	440 <main+0x374>
     42a:	f001 03fe 	and.w	r3, r1, #254	; 0xfe
     42e:	2b1c      	cmp	r3, #28
     430:	f040 852d 	bne.w	e8e <main+0xdc2>
     434:	f24c 0324 	movw	r3, #49188	; 0xc024
     438:	3910      	subs	r1, #16
     43a:	f2c4 0302 	movt	r3, #16386	; 0x4002
     43e:	e03c      	b.n	4ba <main+0x3ee>
     440:	e8df f003 	tbb	[pc, r3]
     444:	1b120a02 	blne	482c54 <_data_load+0x480480>
     448:	b2cb      	uxtb	r3, r1
     44a:	2b10      	cmp	r3, #16
     44c:	d221      	bcs.n	492 <main+0x3c6>
     44e:	f24c 0300 	movw	r3, #49152	; 0xc000
     452:	f2c4 0302 	movt	r3, #16386	; 0x4002
     456:	e030      	b.n	4ba <main+0x3ee>
     458:	b2cb      	uxtb	r3, r1
     45a:	2b10      	cmp	r3, #16
     45c:	d223      	bcs.n	4a6 <main+0x3da>
     45e:	f24c 0308 	movw	r3, #49160	; 0xc008
     462:	f2c4 0302 	movt	r3, #16386	; 0x4002
     466:	e028      	b.n	4ba <main+0x3ee>
     468:	b2cb      	uxtb	r3, r1
     46a:	2b0e      	cmp	r3, #14
     46c:	f080 8512 	bcs.w	e94 <main+0xdc8>
     470:	f24c 0310 	movw	r3, #49168	; 0xc010
     474:	f2c4 0302 	movt	r3, #16386	; 0x4002
     478:	e01f      	b.n	4ba <main+0x3ee>
     47a:	f1a1 0319 	sub.w	r3, r1, #25
     47e:	b2db      	uxtb	r3, r3
     480:	2b02      	cmp	r3, #2
     482:	f080 850a 	bcs.w	e9a <main+0xdce>
     486:	f24c 031c 	movw	r3, #49180	; 0xc01c
     48a:	3910      	subs	r1, #16
     48c:	f2c4 0302 	movt	r3, #16386	; 0x4002
     490:	e013      	b.n	4ba <main+0x3ee>
     492:	3910      	subs	r1, #16
     494:	b2cb      	uxtb	r3, r1
     496:	2b0f      	cmp	r3, #15
     498:	f080 8502 	bcs.w	ea0 <main+0xdd4>
     49c:	f24c 0304 	movw	r3, #49156	; 0xc004
     4a0:	f2c4 0302 	movt	r3, #16386	; 0x4002
     4a4:	e009      	b.n	4ba <main+0x3ee>
     4a6:	f001 03f0 	and.w	r3, r1, #240	; 0xf0
     4aa:	2b10      	cmp	r3, #16
     4ac:	f040 84f2 	bne.w	e94 <main+0xdc8>
     4b0:	f24c 030c 	movw	r3, #49164	; 0xc00c
     4b4:	3910      	subs	r1, #16
     4b6:	f2c4 0302 	movt	r3, #16386	; 0x4002
     4ba:	0049      	lsls	r1, r1, #1
     4bc:	b2d2      	uxtb	r2, r2
     4be:	2703      	movs	r7, #3
     4c0:	b2c9      	uxtb	r1, r1
     4c2:	408a      	lsls	r2, r1
     4c4:	fa07 f101 	lsl.w	r1, r7, r1
     4c8:	681f      	ldr	r7, [r3, #0]
     4ca:	ea27 0101 	bic.w	r1, r7, r1
     4ce:	4311      	orrs	r1, r2
     4d0:	6019      	str	r1, [r3, #0]
     4d2:	a98c      	add	r1, sp, #560	; 0x230
     4d4:	2401      	movs	r4, #1
     4d6:	958d      	str	r5, [sp, #564]	; 0x234
     4d8:	2500      	movs	r5, #0
     4da:	9190      	str	r1, [sp, #576]	; 0x240
     4dc:	a98e      	add	r1, sp, #568	; 0x238
     4de:	948c      	str	r4, [sp, #560]	; 0x230
     4e0:	9191      	str	r1, [sp, #580]	; 0x244
     4e2:	f24c 0100 	movw	r1, #49152	; 0xc000
     4e6:	f2c2 0109 	movt	r1, #8201	; 0x2009
     4ea:	680a      	ldr	r2, [r1, #0]
     4ec:	f042 0240 	orr.w	r2, r2, #64	; 0x40
     4f0:	600a      	str	r2, [r1, #0]
     4f2:	f100 022c 	add.w	r2, r0, #44	; 0x2c
     4f6:	9292      	str	r2, [sp, #584]	; 0x248
     4f8:	680a      	ldr	r2, [r1, #0]
     4fa:	f442 2280 	orr.w	r2, r2, #262144	; 0x40000
     4fe:	600a      	str	r2, [r1, #0]
     500:	f100 0230 	add.w	r2, r0, #48	; 0x30
     504:	3034      	adds	r0, #52	; 0x34
     506:	9293      	str	r2, [sp, #588]	; 0x24c
     508:	680a      	ldr	r2, [r1, #0]
     50a:	f442 7280 	orr.w	r2, r2, #256	; 0x100
     50e:	600a      	str	r2, [r1, #0]
     510:	9094      	str	r0, [sp, #592]	; 0x250
     512:	a890      	add	r0, sp, #576	; 0x240
     514:	f44f 7100 	mov.w	r1, #512	; 0x200
     518:	2200      	movs	r2, #0
     51a:	3014      	adds	r0, #20
     51c:	f001 fade 	bl	1adc <__aeabi_memset>
     520:	f242 00a0 	movw	r0, #8352	; 0x20a0
     524:	f2c0 0000 	movt	r0, #0
     528:	f8cd 0454 	str.w	r0, [sp, #1108]	; 0x454
     52c:	f240 7024 	movw	r0, #1828	; 0x724
     530:	f8cd 0458 	str.w	r0, [sp, #1112]	; 0x458
     534:	f8cd 545c 	str.w	r5, [sp, #1116]	; 0x45c
     538:	f8cd 5460 	str.w	r5, [sp, #1120]	; 0x460
     53c:	9892      	ldr	r0, [sp, #584]	; 0x248
     53e:	7801      	ldrb	r1, [r0, #0]
     540:	2903      	cmp	r1, #3
     542:	d806      	bhi.n	552 <main+0x486>
     544:	f242 72c4 	movw	r2, #10180	; 0x27c4
     548:	f2c0 0200 	movt	r2, #0
     54c:	f852 1021 	ldr.w	r1, [r2, r1, lsl #2]
     550:	e003      	b.n	55a <main+0x48e>
     552:	f24c 0180 	movw	r1, #49280	; 0xc080
     556:	f2c2 0109 	movt	r1, #8201	; 0x2009
     55a:	7840      	ldrb	r0, [r0, #1]
     55c:	fa04 f000 	lsl.w	r0, r4, r0
     560:	61c8      	str	r0, [r1, #28]
     562:	9893      	ldr	r0, [sp, #588]	; 0x24c
     564:	7801      	ldrb	r1, [r0, #0]
     566:	2903      	cmp	r1, #3
     568:	d806      	bhi.n	578 <main+0x4ac>
     56a:	f242 72c4 	movw	r2, #10180	; 0x27c4
     56e:	f2c0 0200 	movt	r2, #0
     572:	f852 1021 	ldr.w	r1, [r2, r1, lsl #2]
     576:	e003      	b.n	580 <main+0x4b4>
     578:	f24c 0180 	movw	r1, #49280	; 0xc080
     57c:	f2c2 0109 	movt	r1, #8201	; 0x2009
     580:	7842      	ldrb	r2, [r0, #1]
     582:	2001      	movs	r0, #1
     584:	fa00 f202 	lsl.w	r2, r0, r2
     588:	618a      	str	r2, [r1, #24]
     58a:	9994      	ldr	r1, [sp, #592]	; 0x250
     58c:	780a      	ldrb	r2, [r1, #0]
     58e:	2a03      	cmp	r2, #3
     590:	d806      	bhi.n	5a0 <main+0x4d4>
     592:	f242 73c4 	movw	r3, #10180	; 0x27c4
     596:	f2c0 0300 	movt	r3, #0
     59a:	f853 2022 	ldr.w	r2, [r3, r2, lsl #2]
     59e:	e003      	b.n	5a8 <main+0x4dc>
     5a0:	f24c 0280 	movw	r2, #49280	; 0xc080
     5a4:	f2c2 0209 	movt	r2, #8201	; 0x2009
     5a8:	7849      	ldrb	r1, [r1, #1]
     5aa:	4088      	lsls	r0, r1
     5ac:	61d0      	str	r0, [r2, #28]
     5ae:	9891      	ldr	r0, [sp, #580]	; 0x244
     5b0:	6800      	ldr	r0, [r0, #0]
     5b2:	6881      	ldr	r1, [r0, #8]
     5b4:	6882      	ldr	r2, [r0, #8]
     5b6:	1a52      	subs	r2, r2, r1
     5b8:	2a32      	cmp	r2, #50	; 0x32
     5ba:	d3fb      	bcc.n	5b4 <main+0x4e8>
     5bc:	9894      	ldr	r0, [sp, #592]	; 0x250
     5be:	7801      	ldrb	r1, [r0, #0]
     5c0:	2903      	cmp	r1, #3
     5c2:	d806      	bhi.n	5d2 <main+0x506>
     5c4:	f242 72c4 	movw	r2, #10180	; 0x27c4
     5c8:	f2c0 0200 	movt	r2, #0
     5cc:	f852 1021 	ldr.w	r1, [r2, r1, lsl #2]
     5d0:	e003      	b.n	5da <main+0x50e>
     5d2:	f24c 0180 	movw	r1, #49280	; 0xc080
     5d6:	f2c2 0109 	movt	r1, #8201	; 0x2009
     5da:	7840      	ldrb	r0, [r0, #1]
     5dc:	2201      	movs	r2, #1
     5de:	fa02 f000 	lsl.w	r0, r2, r0
     5e2:	f241 3288 	movw	r2, #5000	; 0x1388
     5e6:	6188      	str	r0, [r1, #24]
     5e8:	9891      	ldr	r0, [sp, #580]	; 0x244
     5ea:	6800      	ldr	r0, [r0, #0]
     5ec:	6881      	ldr	r1, [r0, #8]
     5ee:	6883      	ldr	r3, [r0, #8]
     5f0:	1a5b      	subs	r3, r3, r1
     5f2:	4293      	cmp	r3, r2
     5f4:	d3fb      	bcc.n	5ee <main+0x522>
     5f6:	9892      	ldr	r0, [sp, #584]	; 0x248
     5f8:	7801      	ldrb	r1, [r0, #0]
     5fa:	2903      	cmp	r1, #3
     5fc:	d806      	bhi.n	60c <main+0x540>
     5fe:	f242 72c4 	movw	r2, #10180	; 0x27c4
     602:	f2c0 0200 	movt	r2, #0
     606:	f852 1021 	ldr.w	r1, [r2, r1, lsl #2]
     60a:	e003      	b.n	614 <main+0x548>
     60c:	f24c 0180 	movw	r1, #49280	; 0xc080
     610:	f2c2 0109 	movt	r1, #8201	; 0x2009
     614:	7842      	ldrb	r2, [r0, #1]
     616:	2001      	movs	r0, #1
     618:	fa00 f202 	lsl.w	r2, r0, r2
     61c:	61ca      	str	r2, [r1, #28]
     61e:	9993      	ldr	r1, [sp, #588]	; 0x24c
     620:	780a      	ldrb	r2, [r1, #0]
     622:	2a03      	cmp	r2, #3
     624:	d806      	bhi.n	634 <main+0x568>
     626:	f242 73c4 	movw	r3, #10180	; 0x27c4
     62a:	f2c0 0300 	movt	r3, #0
     62e:	f853 2022 	ldr.w	r2, [r3, r2, lsl #2]
     632:	e003      	b.n	63c <main+0x570>
     634:	f24c 0280 	movw	r2, #49280	; 0xc080
     638:	f2c2 0209 	movt	r2, #8201	; 0x2009
     63c:	7849      	ldrb	r1, [r1, #1]
     63e:	4088      	lsls	r0, r1
     640:	61d0      	str	r0, [r2, #28]
     642:	9890      	ldr	r0, [sp, #576]	; 0x240
     644:	6841      	ldr	r1, [r0, #4]
     646:	68ca      	ldr	r2, [r1, #12]
     648:	f012 0f02 	tst.w	r2, #2
     64c:	d0fb      	beq.n	646 <main+0x57a>
     64e:	22ae      	movs	r2, #174	; 0xae
     650:	608a      	str	r2, [r1, #8]
     652:	6840      	ldr	r0, [r0, #4]
     654:	68c1      	ldr	r1, [r0, #12]
     656:	f011 0f10 	tst.w	r1, #16
     65a:	d1fb      	bne.n	654 <main+0x588>
     65c:	9893      	ldr	r0, [sp, #588]	; 0x24c
     65e:	7801      	ldrb	r1, [r0, #0]
     660:	2903      	cmp	r1, #3
     662:	d806      	bhi.n	672 <main+0x5a6>
     664:	f242 72c4 	movw	r2, #10180	; 0x27c4
     668:	f2c0 0200 	movt	r2, #0
     66c:	f852 1021 	ldr.w	r1, [r2, r1, lsl #2]
     670:	e003      	b.n	67a <main+0x5ae>
     672:	f24c 0180 	movw	r1, #49280	; 0xc080
     676:	f2c2 0109 	movt	r1, #8201	; 0x2009
     67a:	7842      	ldrb	r2, [r0, #1]
     67c:	2001      	movs	r0, #1
     67e:	fa00 f202 	lsl.w	r2, r0, r2
     682:	618a      	str	r2, [r1, #24]
     684:	9992      	ldr	r1, [sp, #584]	; 0x248
     686:	780a      	ldrb	r2, [r1, #0]
     688:	2a03      	cmp	r2, #3
     68a:	d806      	bhi.n	69a <main+0x5ce>
     68c:	f242 73c4 	movw	r3, #10180	; 0x27c4
     690:	f2c0 0300 	movt	r3, #0
     694:	f853 2022 	ldr.w	r2, [r3, r2, lsl #2]
     698:	e003      	b.n	6a2 <main+0x5d6>
     69a:	f24c 0280 	movw	r2, #49280	; 0xc080
     69e:	f2c2 0209 	movt	r2, #8201	; 0x2009
     6a2:	7849      	ldrb	r1, [r1, #1]
     6a4:	4088      	lsls	r0, r1
     6a6:	61d0      	str	r0, [r2, #28]
     6a8:	9893      	ldr	r0, [sp, #588]	; 0x24c
     6aa:	7801      	ldrb	r1, [r0, #0]
     6ac:	2903      	cmp	r1, #3
     6ae:	d806      	bhi.n	6be <main+0x5f2>
     6b0:	f242 72c4 	movw	r2, #10180	; 0x27c4
     6b4:	f2c0 0200 	movt	r2, #0
     6b8:	f852 1021 	ldr.w	r1, [r2, r1, lsl #2]
     6bc:	e003      	b.n	6c6 <main+0x5fa>
     6be:	f24c 0180 	movw	r1, #49280	; 0xc080
     6c2:	f2c2 0109 	movt	r1, #8201	; 0x2009
     6c6:	7840      	ldrb	r0, [r0, #1]
     6c8:	2201      	movs	r2, #1
     6ca:	fa02 f000 	lsl.w	r0, r2, r0
     6ce:	61c8      	str	r0, [r1, #28]
     6d0:	9890      	ldr	r0, [sp, #576]	; 0x240
     6d2:	6841      	ldr	r1, [r0, #4]
     6d4:	68ca      	ldr	r2, [r1, #12]
     6d6:	f012 0f02 	tst.w	r2, #2
     6da:	d0fb      	beq.n	6d4 <main+0x608>
     6dc:	22a2      	movs	r2, #162	; 0xa2
     6de:	608a      	str	r2, [r1, #8]
     6e0:	6840      	ldr	r0, [r0, #4]
     6e2:	68c1      	ldr	r1, [r0, #12]
     6e4:	f011 0f10 	tst.w	r1, #16
     6e8:	d1fb      	bne.n	6e2 <main+0x616>
     6ea:	9893      	ldr	r0, [sp, #588]	; 0x24c
     6ec:	7801      	ldrb	r1, [r0, #0]
     6ee:	2903      	cmp	r1, #3
     6f0:	d806      	bhi.n	700 <main+0x634>
     6f2:	f242 72c4 	movw	r2, #10180	; 0x27c4
     6f6:	f2c0 0200 	movt	r2, #0
     6fa:	f852 1021 	ldr.w	r1, [r2, r1, lsl #2]
     6fe:	e003      	b.n	708 <main+0x63c>
     700:	f24c 0180 	movw	r1, #49280	; 0xc080
     704:	f2c2 0109 	movt	r1, #8201	; 0x2009
     708:	7842      	ldrb	r2, [r0, #1]
     70a:	2001      	movs	r0, #1
     70c:	fa00 f202 	lsl.w	r2, r0, r2
     710:	618a      	str	r2, [r1, #24]
     712:	9992      	ldr	r1, [sp, #584]	; 0x248
     714:	780a      	ldrb	r2, [r1, #0]
     716:	2a03      	cmp	r2, #3
     718:	d806      	bhi.n	728 <main+0x65c>
     71a:	f242 73c4 	movw	r3, #10180	; 0x27c4
     71e:	f2c0 0300 	movt	r3, #0
     722:	f853 2022 	ldr.w	r2, [r3, r2, lsl #2]
     726:	e003      	b.n	730 <main+0x664>
     728:	f24c 0280 	movw	r2, #49280	; 0xc080
     72c:	f2c2 0209 	movt	r2, #8201	; 0x2009
     730:	7849      	ldrb	r1, [r1, #1]
     732:	4088      	lsls	r0, r1
     734:	61d0      	str	r0, [r2, #28]
     736:	9893      	ldr	r0, [sp, #588]	; 0x24c
     738:	7801      	ldrb	r1, [r0, #0]
     73a:	2903      	cmp	r1, #3
     73c:	d806      	bhi.n	74c <main+0x680>
     73e:	f242 72c4 	movw	r2, #10180	; 0x27c4
     742:	f2c0 0200 	movt	r2, #0
     746:	f852 1021 	ldr.w	r1, [r2, r1, lsl #2]
     74a:	e003      	b.n	754 <main+0x688>
     74c:	f24c 0180 	movw	r1, #49280	; 0xc080
     750:	f2c2 0109 	movt	r1, #8201	; 0x2009
     754:	7840      	ldrb	r0, [r0, #1]
     756:	2201      	movs	r2, #1
     758:	fa02 f000 	lsl.w	r0, r2, r0
     75c:	61c8      	str	r0, [r1, #28]
     75e:	9890      	ldr	r0, [sp, #576]	; 0x240
     760:	6841      	ldr	r1, [r0, #4]
     762:	68ca      	ldr	r2, [r1, #12]
     764:	f012 0f02 	tst.w	r2, #2
     768:	d0fb      	beq.n	762 <main+0x696>
     76a:	22a0      	movs	r2, #160	; 0xa0
     76c:	608a      	str	r2, [r1, #8]
     76e:	6840      	ldr	r0, [r0, #4]
     770:	68c1      	ldr	r1, [r0, #12]
     772:	f011 0f10 	tst.w	r1, #16
     776:	d1fb      	bne.n	770 <main+0x6a4>
     778:	9893      	ldr	r0, [sp, #588]	; 0x24c
     77a:	7801      	ldrb	r1, [r0, #0]
     77c:	2903      	cmp	r1, #3
     77e:	d806      	bhi.n	78e <main+0x6c2>
     780:	f242 72c4 	movw	r2, #10180	; 0x27c4
     784:	f2c0 0200 	movt	r2, #0
     788:	f852 1021 	ldr.w	r1, [r2, r1, lsl #2]
     78c:	e003      	b.n	796 <main+0x6ca>
     78e:	f24c 0180 	movw	r1, #49280	; 0xc080
     792:	f2c2 0109 	movt	r1, #8201	; 0x2009
     796:	7842      	ldrb	r2, [r0, #1]
     798:	2001      	movs	r0, #1
     79a:	fa00 f202 	lsl.w	r2, r0, r2
     79e:	618a      	str	r2, [r1, #24]
     7a0:	9992      	ldr	r1, [sp, #584]	; 0x248
     7a2:	780a      	ldrb	r2, [r1, #0]
     7a4:	2a03      	cmp	r2, #3
     7a6:	d806      	bhi.n	7b6 <main+0x6ea>
     7a8:	f242 73c4 	movw	r3, #10180	; 0x27c4
     7ac:	f2c0 0300 	movt	r3, #0
     7b0:	f853 2022 	ldr.w	r2, [r3, r2, lsl #2]
     7b4:	e003      	b.n	7be <main+0x6f2>
     7b6:	f24c 0280 	movw	r2, #49280	; 0xc080
     7ba:	f2c2 0209 	movt	r2, #8201	; 0x2009
     7be:	7849      	ldrb	r1, [r1, #1]
     7c0:	4088      	lsls	r0, r1
     7c2:	61d0      	str	r0, [r2, #28]
     7c4:	9893      	ldr	r0, [sp, #588]	; 0x24c
     7c6:	7801      	ldrb	r1, [r0, #0]
     7c8:	2903      	cmp	r1, #3
     7ca:	d806      	bhi.n	7da <main+0x70e>
     7cc:	f242 72c4 	movw	r2, #10180	; 0x27c4
     7d0:	f2c0 0200 	movt	r2, #0
     7d4:	f852 1021 	ldr.w	r1, [r2, r1, lsl #2]
     7d8:	e003      	b.n	7e2 <main+0x716>
     7da:	f24c 0180 	movw	r1, #49280	; 0xc080
     7de:	f2c2 0109 	movt	r1, #8201	; 0x2009
     7e2:	7840      	ldrb	r0, [r0, #1]
     7e4:	2201      	movs	r2, #1
     7e6:	fa02 f000 	lsl.w	r0, r2, r0
     7ea:	61c8      	str	r0, [r1, #28]
     7ec:	9890      	ldr	r0, [sp, #576]	; 0x240
     7ee:	6841      	ldr	r1, [r0, #4]
     7f0:	68ca      	ldr	r2, [r1, #12]
     7f2:	f012 0f02 	tst.w	r2, #2
     7f6:	d0fb      	beq.n	7f0 <main+0x724>
     7f8:	22c8      	movs	r2, #200	; 0xc8
     7fa:	608a      	str	r2, [r1, #8]
     7fc:	6840      	ldr	r0, [r0, #4]
     7fe:	68c1      	ldr	r1, [r0, #12]
     800:	f011 0f10 	tst.w	r1, #16
     804:	d1fb      	bne.n	7fe <main+0x732>
     806:	9893      	ldr	r0, [sp, #588]	; 0x24c
     808:	7801      	ldrb	r1, [r0, #0]
     80a:	2903      	cmp	r1, #3
     80c:	d806      	bhi.n	81c <main+0x750>
     80e:	f242 72c4 	movw	r2, #10180	; 0x27c4
     812:	f2c0 0200 	movt	r2, #0
     816:	f852 1021 	ldr.w	r1, [r2, r1, lsl #2]
     81a:	e003      	b.n	824 <main+0x758>
     81c:	f24c 0180 	movw	r1, #49280	; 0xc080
     820:	f2c2 0109 	movt	r1, #8201	; 0x2009
     824:	7842      	ldrb	r2, [r0, #1]
     826:	2001      	movs	r0, #1
     828:	fa00 f202 	lsl.w	r2, r0, r2
     82c:	618a      	str	r2, [r1, #24]
     82e:	9992      	ldr	r1, [sp, #584]	; 0x248
     830:	780a      	ldrb	r2, [r1, #0]
     832:	2a03      	cmp	r2, #3
     834:	d806      	bhi.n	844 <main+0x778>
     836:	f242 73c4 	movw	r3, #10180	; 0x27c4
     83a:	f2c0 0300 	movt	r3, #0
     83e:	f853 2022 	ldr.w	r2, [r3, r2, lsl #2]
     842:	e003      	b.n	84c <main+0x780>
     844:	f24c 0280 	movw	r2, #49280	; 0xc080
     848:	f2c2 0209 	movt	r2, #8201	; 0x2009
     84c:	7849      	ldrb	r1, [r1, #1]
     84e:	4088      	lsls	r0, r1
     850:	61d0      	str	r0, [r2, #28]
     852:	9893      	ldr	r0, [sp, #588]	; 0x24c
     854:	7801      	ldrb	r1, [r0, #0]
     856:	2903      	cmp	r1, #3
     858:	d806      	bhi.n	868 <main+0x79c>
     85a:	f242 72c4 	movw	r2, #10180	; 0x27c4
     85e:	f2c0 0200 	movt	r2, #0
     862:	f852 1021 	ldr.w	r1, [r2, r1, lsl #2]
     866:	e003      	b.n	870 <main+0x7a4>
     868:	f24c 0180 	movw	r1, #49280	; 0xc080
     86c:	f2c2 0109 	movt	r1, #8201	; 0x2009
     870:	7840      	ldrb	r0, [r0, #1]
     872:	2201      	movs	r2, #1
     874:	fa02 f000 	lsl.w	r0, r2, r0
     878:	61c8      	str	r0, [r1, #28]
     87a:	9890      	ldr	r0, [sp, #576]	; 0x240
     87c:	6841      	ldr	r1, [r0, #4]
     87e:	68ca      	ldr	r2, [r1, #12]
     880:	f012 0f02 	tst.w	r2, #2
     884:	d0fb      	beq.n	87e <main+0x7b2>
     886:	2222      	movs	r2, #34	; 0x22
     888:	608a      	str	r2, [r1, #8]
     88a:	6840      	ldr	r0, [r0, #4]
     88c:	68c1      	ldr	r1, [r0, #12]
     88e:	f011 0f10 	tst.w	r1, #16
     892:	d1fb      	bne.n	88c <main+0x7c0>
     894:	9893      	ldr	r0, [sp, #588]	; 0x24c
     896:	7801      	ldrb	r1, [r0, #0]
     898:	2903      	cmp	r1, #3
     89a:	d806      	bhi.n	8aa <main+0x7de>
     89c:	f242 72c4 	movw	r2, #10180	; 0x27c4
     8a0:	f2c0 0200 	movt	r2, #0
     8a4:	f852 1021 	ldr.w	r1, [r2, r1, lsl #2]
     8a8:	e003      	b.n	8b2 <main+0x7e6>
     8aa:	f24c 0180 	movw	r1, #49280	; 0xc080
     8ae:	f2c2 0109 	movt	r1, #8201	; 0x2009
     8b2:	7842      	ldrb	r2, [r0, #1]
     8b4:	2001      	movs	r0, #1
     8b6:	fa00 f202 	lsl.w	r2, r0, r2
     8ba:	618a      	str	r2, [r1, #24]
     8bc:	9992      	ldr	r1, [sp, #584]	; 0x248
     8be:	780a      	ldrb	r2, [r1, #0]
     8c0:	2a03      	cmp	r2, #3
     8c2:	d806      	bhi.n	8d2 <main+0x806>
     8c4:	f242 73c4 	movw	r3, #10180	; 0x27c4
     8c8:	f2c0 0300 	movt	r3, #0
     8cc:	f853 2022 	ldr.w	r2, [r3, r2, lsl #2]
     8d0:	e003      	b.n	8da <main+0x80e>
     8d2:	f24c 0280 	movw	r2, #49280	; 0xc080
     8d6:	f2c2 0209 	movt	r2, #8201	; 0x2009
     8da:	7849      	ldrb	r1, [r1, #1]
     8dc:	4088      	lsls	r0, r1
     8de:	61d0      	str	r0, [r2, #28]
     8e0:	9893      	ldr	r0, [sp, #588]	; 0x24c
     8e2:	7801      	ldrb	r1, [r0, #0]
     8e4:	2903      	cmp	r1, #3
     8e6:	d806      	bhi.n	8f6 <main+0x82a>
     8e8:	f242 72c4 	movw	r2, #10180	; 0x27c4
     8ec:	f2c0 0200 	movt	r2, #0
     8f0:	f852 1021 	ldr.w	r1, [r2, r1, lsl #2]
     8f4:	e003      	b.n	8fe <main+0x832>
     8f6:	f24c 0180 	movw	r1, #49280	; 0xc080
     8fa:	f2c2 0109 	movt	r1, #8201	; 0x2009
     8fe:	7840      	ldrb	r0, [r0, #1]
     900:	2201      	movs	r2, #1
     902:	fa02 f000 	lsl.w	r0, r2, r0
     906:	61c8      	str	r0, [r1, #28]
     908:	9890      	ldr	r0, [sp, #576]	; 0x240
     90a:	6841      	ldr	r1, [r0, #4]
     90c:	68ca      	ldr	r2, [r1, #12]
     90e:	f012 0f02 	tst.w	r2, #2
     912:	d0fb      	beq.n	90c <main+0x840>
     914:	222f      	movs	r2, #47	; 0x2f
     916:	608a      	str	r2, [r1, #8]
     918:	6840      	ldr	r0, [r0, #4]
     91a:	68c1      	ldr	r1, [r0, #12]
     91c:	f011 0f10 	tst.w	r1, #16
     920:	d1fb      	bne.n	91a <main+0x84e>
     922:	9893      	ldr	r0, [sp, #588]	; 0x24c
     924:	7801      	ldrb	r1, [r0, #0]
     926:	2903      	cmp	r1, #3
     928:	d806      	bhi.n	938 <main+0x86c>
     92a:	f242 72c4 	movw	r2, #10180	; 0x27c4
     92e:	f2c0 0200 	movt	r2, #0
     932:	f852 1021 	ldr.w	r1, [r2, r1, lsl #2]
     936:	e003      	b.n	940 <main+0x874>
     938:	f24c 0180 	movw	r1, #49280	; 0xc080
     93c:	f2c2 0109 	movt	r1, #8201	; 0x2009
     940:	7842      	ldrb	r2, [r0, #1]
     942:	2001      	movs	r0, #1
     944:	fa00 f202 	lsl.w	r2, r0, r2
     948:	618a      	str	r2, [r1, #24]
     94a:	9992      	ldr	r1, [sp, #584]	; 0x248
     94c:	780a      	ldrb	r2, [r1, #0]
     94e:	2a03      	cmp	r2, #3
     950:	d806      	bhi.n	960 <main+0x894>
     952:	f242 73c4 	movw	r3, #10180	; 0x27c4
     956:	f2c0 0300 	movt	r3, #0
     95a:	f853 2022 	ldr.w	r2, [r3, r2, lsl #2]
     95e:	e003      	b.n	968 <main+0x89c>
     960:	f24c 0280 	movw	r2, #49280	; 0xc080
     964:	f2c2 0209 	movt	r2, #8201	; 0x2009
     968:	7849      	ldrb	r1, [r1, #1]
     96a:	4088      	lsls	r0, r1
     96c:	61d0      	str	r0, [r2, #28]
     96e:	9893      	ldr	r0, [sp, #588]	; 0x24c
     970:	7801      	ldrb	r1, [r0, #0]
     972:	2903      	cmp	r1, #3
     974:	d806      	bhi.n	984 <main+0x8b8>
     976:	f242 72c4 	movw	r2, #10180	; 0x27c4
     97a:	f2c0 0200 	movt	r2, #0
     97e:	f852 1021 	ldr.w	r1, [r2, r1, lsl #2]
     982:	e003      	b.n	98c <main+0x8c0>
     984:	f24c 0180 	movw	r1, #49280	; 0xc080
     988:	f2c2 0109 	movt	r1, #8201	; 0x2009
     98c:	7840      	ldrb	r0, [r0, #1]
     98e:	2201      	movs	r2, #1
     990:	fa02 f000 	lsl.w	r0, r2, r0
     994:	61c8      	str	r0, [r1, #28]
     996:	9890      	ldr	r0, [sp, #576]	; 0x240
     998:	6841      	ldr	r1, [r0, #4]
     99a:	68ca      	ldr	r2, [r1, #12]
     99c:	f012 0f02 	tst.w	r2, #2
     9a0:	d0fb      	beq.n	99a <main+0x8ce>
     9a2:	2240      	movs	r2, #64	; 0x40
     9a4:	608a      	str	r2, [r1, #8]
     9a6:	6840      	ldr	r0, [r0, #4]
     9a8:	68c1      	ldr	r1, [r0, #12]
     9aa:	f011 0f10 	tst.w	r1, #16
     9ae:	d1fb      	bne.n	9a8 <main+0x8dc>
     9b0:	9893      	ldr	r0, [sp, #588]	; 0x24c
     9b2:	7801      	ldrb	r1, [r0, #0]
     9b4:	2903      	cmp	r1, #3
     9b6:	d806      	bhi.n	9c6 <main+0x8fa>
     9b8:	f242 72c4 	movw	r2, #10180	; 0x27c4
     9bc:	f2c0 0200 	movt	r2, #0
     9c0:	f852 1021 	ldr.w	r1, [r2, r1, lsl #2]
     9c4:	e003      	b.n	9ce <main+0x902>
     9c6:	f24c 0180 	movw	r1, #49280	; 0xc080
     9ca:	f2c2 0109 	movt	r1, #8201	; 0x2009
     9ce:	7842      	ldrb	r2, [r0, #1]
     9d0:	2001      	movs	r0, #1
     9d2:	fa00 f202 	lsl.w	r2, r0, r2
     9d6:	618a      	str	r2, [r1, #24]
     9d8:	9992      	ldr	r1, [sp, #584]	; 0x248
     9da:	780a      	ldrb	r2, [r1, #0]
     9dc:	2a03      	cmp	r2, #3
     9de:	d806      	bhi.n	9ee <main+0x922>
     9e0:	f242 73c4 	movw	r3, #10180	; 0x27c4
     9e4:	f2c0 0300 	movt	r3, #0
     9e8:	f853 2022 	ldr.w	r2, [r3, r2, lsl #2]
     9ec:	e003      	b.n	9f6 <main+0x92a>
     9ee:	f24c 0280 	movw	r2, #49280	; 0xc080
     9f2:	f2c2 0209 	movt	r2, #8201	; 0x2009
     9f6:	7849      	ldrb	r1, [r1, #1]
     9f8:	4088      	lsls	r0, r1
     9fa:	61d0      	str	r0, [r2, #28]
     9fc:	9893      	ldr	r0, [sp, #588]	; 0x24c
     9fe:	7801      	ldrb	r1, [r0, #0]
     a00:	2903      	cmp	r1, #3
     a02:	d806      	bhi.n	a12 <main+0x946>
     a04:	f242 72c4 	movw	r2, #10180	; 0x27c4
     a08:	f2c0 0200 	movt	r2, #0
     a0c:	f852 1021 	ldr.w	r1, [r2, r1, lsl #2]
     a10:	e003      	b.n	a1a <main+0x94e>
     a12:	f24c 0180 	movw	r1, #49280	; 0xc080
     a16:	f2c2 0109 	movt	r1, #8201	; 0x2009
     a1a:	7840      	ldrb	r0, [r0, #1]
     a1c:	2201      	movs	r2, #1
     a1e:	fa02 f000 	lsl.w	r0, r2, r0
     a22:	61c8      	str	r0, [r1, #28]
     a24:	9890      	ldr	r0, [sp, #576]	; 0x240
     a26:	6841      	ldr	r1, [r0, #4]
     a28:	68ca      	ldr	r2, [r1, #12]
     a2a:	f012 0f02 	tst.w	r2, #2
     a2e:	d0fb      	beq.n	a28 <main+0x95c>
     a30:	22af      	movs	r2, #175	; 0xaf
     a32:	608a      	str	r2, [r1, #8]
     a34:	6840      	ldr	r0, [r0, #4]
     a36:	68c1      	ldr	r1, [r0, #12]
     a38:	f011 0f10 	tst.w	r1, #16
     a3c:	d1fb      	bne.n	a36 <main+0x96a>
     a3e:	9893      	ldr	r0, [sp, #588]	; 0x24c
     a40:	7801      	ldrb	r1, [r0, #0]
     a42:	2903      	cmp	r1, #3
     a44:	d806      	bhi.n	a54 <main+0x988>
     a46:	f242 72c4 	movw	r2, #10180	; 0x27c4
     a4a:	f2c0 0200 	movt	r2, #0
     a4e:	f852 1021 	ldr.w	r1, [r2, r1, lsl #2]
     a52:	e003      	b.n	a5c <main+0x990>
     a54:	f24c 0180 	movw	r1, #49280	; 0xc080
     a58:	f2c2 0109 	movt	r1, #8201	; 0x2009
     a5c:	7842      	ldrb	r2, [r0, #1]
     a5e:	2001      	movs	r0, #1
     a60:	fa00 f202 	lsl.w	r2, r0, r2
     a64:	618a      	str	r2, [r1, #24]
     a66:	9992      	ldr	r1, [sp, #584]	; 0x248
     a68:	780a      	ldrb	r2, [r1, #0]
     a6a:	2a03      	cmp	r2, #3
     a6c:	d806      	bhi.n	a7c <main+0x9b0>
     a6e:	f242 73c4 	movw	r3, #10180	; 0x27c4
     a72:	f2c0 0300 	movt	r3, #0
     a76:	f853 2022 	ldr.w	r2, [r3, r2, lsl #2]
     a7a:	e003      	b.n	a84 <main+0x9b8>
     a7c:	f24c 0280 	movw	r2, #49280	; 0xc080
     a80:	f2c2 0209 	movt	r2, #8201	; 0x2009
     a84:	7849      	ldrb	r1, [r1, #1]
     a86:	4088      	lsls	r0, r1
     a88:	61d0      	str	r0, [r2, #28]
     a8a:	9893      	ldr	r0, [sp, #588]	; 0x24c
     a8c:	7801      	ldrb	r1, [r0, #0]
     a8e:	2903      	cmp	r1, #3
     a90:	d806      	bhi.n	aa0 <main+0x9d4>
     a92:	f242 72c4 	movw	r2, #10180	; 0x27c4
     a96:	f2c0 0200 	movt	r2, #0
     a9a:	f852 1021 	ldr.w	r1, [r2, r1, lsl #2]
     a9e:	e003      	b.n	aa8 <main+0x9dc>
     aa0:	f24c 0180 	movw	r1, #49280	; 0xc080
     aa4:	f2c2 0109 	movt	r1, #8201	; 0x2009
     aa8:	7840      	ldrb	r0, [r0, #1]
     aaa:	2201      	movs	r2, #1
     aac:	fa02 f000 	lsl.w	r0, r2, r0
     ab0:	61c8      	str	r0, [r1, #28]
     ab2:	9890      	ldr	r0, [sp, #576]	; 0x240
     ab4:	6841      	ldr	r1, [r0, #4]
     ab6:	68ca      	ldr	r2, [r1, #12]
     ab8:	f012 0f02 	tst.w	r2, #2
     abc:	d0fb      	beq.n	ab6 <main+0x9ea>
     abe:	2281      	movs	r2, #129	; 0x81
     ac0:	608a      	str	r2, [r1, #8]
     ac2:	6840      	ldr	r0, [r0, #4]
     ac4:	68c1      	ldr	r1, [r0, #12]
     ac6:	f011 0f10 	tst.w	r1, #16
     aca:	d1fb      	bne.n	ac4 <main+0x9f8>
     acc:	9893      	ldr	r0, [sp, #588]	; 0x24c
     ace:	7801      	ldrb	r1, [r0, #0]
     ad0:	2903      	cmp	r1, #3
     ad2:	d806      	bhi.n	ae2 <main+0xa16>
     ad4:	f242 72c4 	movw	r2, #10180	; 0x27c4
     ad8:	f2c0 0200 	movt	r2, #0
     adc:	f852 1021 	ldr.w	r1, [r2, r1, lsl #2]
     ae0:	e003      	b.n	aea <main+0xa1e>
     ae2:	f24c 0180 	movw	r1, #49280	; 0xc080
     ae6:	f2c2 0109 	movt	r1, #8201	; 0x2009
     aea:	7842      	ldrb	r2, [r0, #1]
     aec:	2001      	movs	r0, #1
     aee:	fa00 f202 	lsl.w	r2, r0, r2
     af2:	618a      	str	r2, [r1, #24]
     af4:	9992      	ldr	r1, [sp, #584]	; 0x248
     af6:	780a      	ldrb	r2, [r1, #0]
     af8:	2a03      	cmp	r2, #3
     afa:	d806      	bhi.n	b0a <main+0xa3e>
     afc:	f242 73c4 	movw	r3, #10180	; 0x27c4
     b00:	f2c0 0300 	movt	r3, #0
     b04:	f853 2022 	ldr.w	r2, [r3, r2, lsl #2]
     b08:	e003      	b.n	b12 <main+0xa46>
     b0a:	f24c 0280 	movw	r2, #49280	; 0xc080
     b0e:	f2c2 0209 	movt	r2, #8201	; 0x2009
     b12:	7849      	ldrb	r1, [r1, #1]
     b14:	4088      	lsls	r0, r1
     b16:	61d0      	str	r0, [r2, #28]
     b18:	9893      	ldr	r0, [sp, #588]	; 0x24c
     b1a:	7801      	ldrb	r1, [r0, #0]
     b1c:	2903      	cmp	r1, #3
     b1e:	d806      	bhi.n	b2e <main+0xa62>
     b20:	f242 72c4 	movw	r2, #10180	; 0x27c4
     b24:	f2c0 0200 	movt	r2, #0
     b28:	f852 1021 	ldr.w	r1, [r2, r1, lsl #2]
     b2c:	e003      	b.n	b36 <main+0xa6a>
     b2e:	f24c 0180 	movw	r1, #49280	; 0xc080
     b32:	f2c2 0109 	movt	r1, #8201	; 0x2009
     b36:	7840      	ldrb	r0, [r0, #1]
     b38:	2201      	movs	r2, #1
     b3a:	fa02 f000 	lsl.w	r0, r2, r0
     b3e:	61c8      	str	r0, [r1, #28]
     b40:	9890      	ldr	r0, [sp, #576]	; 0x240
     b42:	6841      	ldr	r1, [r0, #4]
     b44:	68ca      	ldr	r2, [r1, #12]
     b46:	f012 0f02 	tst.w	r2, #2
     b4a:	d0fb      	beq.n	b44 <main+0xa78>
     b4c:	2217      	movs	r2, #23
     b4e:	608a      	str	r2, [r1, #8]
     b50:	6840      	ldr	r0, [r0, #4]
     b52:	68c1      	ldr	r1, [r0, #12]
     b54:	f011 0f10 	tst.w	r1, #16
     b58:	d1fb      	bne.n	b52 <main+0xa86>
     b5a:	9893      	ldr	r0, [sp, #588]	; 0x24c
     b5c:	7801      	ldrb	r1, [r0, #0]
     b5e:	2903      	cmp	r1, #3
     b60:	d806      	bhi.n	b70 <main+0xaa4>
     b62:	f242 72c4 	movw	r2, #10180	; 0x27c4
     b66:	f2c0 0200 	movt	r2, #0
     b6a:	f852 1021 	ldr.w	r1, [r2, r1, lsl #2]
     b6e:	e003      	b.n	b78 <main+0xaac>
     b70:	f24c 0180 	movw	r1, #49280	; 0xc080
     b74:	f2c2 0109 	movt	r1, #8201	; 0x2009
     b78:	7842      	ldrb	r2, [r0, #1]
     b7a:	2001      	movs	r0, #1
     b7c:	fa00 f202 	lsl.w	r2, r0, r2
     b80:	618a      	str	r2, [r1, #24]
     b82:	9992      	ldr	r1, [sp, #584]	; 0x248
     b84:	780a      	ldrb	r2, [r1, #0]
     b86:	2a03      	cmp	r2, #3
     b88:	d806      	bhi.n	b98 <main+0xacc>
     b8a:	f242 73c4 	movw	r3, #10180	; 0x27c4
     b8e:	f2c0 0300 	movt	r3, #0
     b92:	f853 2022 	ldr.w	r2, [r3, r2, lsl #2]
     b96:	e003      	b.n	ba0 <main+0xad4>
     b98:	f24c 0280 	movw	r2, #49280	; 0xc080
     b9c:	f2c2 0209 	movt	r2, #8201	; 0x2009
     ba0:	7849      	ldrb	r1, [r1, #1]
     ba2:	4088      	lsls	r0, r1
     ba4:	61d0      	str	r0, [r2, #28]
     ba6:	9893      	ldr	r0, [sp, #588]	; 0x24c
     ba8:	7801      	ldrb	r1, [r0, #0]
     baa:	2903      	cmp	r1, #3
     bac:	d806      	bhi.n	bbc <main+0xaf0>
     bae:	f242 72c4 	movw	r2, #10180	; 0x27c4
     bb2:	f2c0 0200 	movt	r2, #0
     bb6:	f852 1021 	ldr.w	r1, [r2, r1, lsl #2]
     bba:	e003      	b.n	bc4 <main+0xaf8>
     bbc:	f24c 0180 	movw	r1, #49280	; 0xc080
     bc0:	f2c2 0109 	movt	r1, #8201	; 0x2009
     bc4:	7840      	ldrb	r0, [r0, #1]
     bc6:	2201      	movs	r2, #1
     bc8:	fa02 f000 	lsl.w	r0, r2, r0
     bcc:	61c8      	str	r0, [r1, #28]
     bce:	9890      	ldr	r0, [sp, #576]	; 0x240
     bd0:	6841      	ldr	r1, [r0, #4]
     bd2:	68ca      	ldr	r2, [r1, #12]
     bd4:	f012 0f02 	tst.w	r2, #2
     bd8:	d0fb      	beq.n	bd2 <main+0xb06>
     bda:	22a6      	movs	r2, #166	; 0xa6
     bdc:	608a      	str	r2, [r1, #8]
     bde:	6840      	ldr	r0, [r0, #4]
     be0:	68c1      	ldr	r1, [r0, #12]
     be2:	f011 0f10 	tst.w	r1, #16
     be6:	d1fb      	bne.n	be0 <main+0xb14>
     be8:	9893      	ldr	r0, [sp, #588]	; 0x24c
     bea:	7801      	ldrb	r1, [r0, #0]
     bec:	2903      	cmp	r1, #3
     bee:	d806      	bhi.n	bfe <main+0xb32>
     bf0:	f242 72c4 	movw	r2, #10180	; 0x27c4
     bf4:	f2c0 0200 	movt	r2, #0
     bf8:	f852 1021 	ldr.w	r1, [r2, r1, lsl #2]
     bfc:	e003      	b.n	c06 <main+0xb3a>
     bfe:	f24c 0180 	movw	r1, #49280	; 0xc080
     c02:	f2c2 0109 	movt	r1, #8201	; 0x2009
     c06:	7840      	ldrb	r0, [r0, #1]
     c08:	2201      	movs	r2, #1
     c0a:	ac90      	add	r4, sp, #576	; 0x240
     c0c:	fa02 f000 	lsl.w	r0, r2, r0
     c10:	6188      	str	r0, [r1, #24]
     c12:	4620      	mov	r0, r4
     c14:	f000 f99c 	bl	f50 <_ZN7drivers3lcd6c1233239C12332$LT$$x27a$C$$x20S$C$$x20T$GT$.LCD5flush21h113857806729637309524v0.0E>
     c18:	ad02      	add	r5, sp, #8
     c1a:	4621      	mov	r1, r4
     c1c:	f44f 7209 	mov.w	r2, #548	; 0x224
     c20:	4628      	mov	r0, r5
     c22:	f000 ff51 	bl	1ac8 <__aeabi_memcpy>
     c26:	f105 0014 	add.w	r0, r5, #20
     c2a:	f44f 7100 	mov.w	r1, #512	; 0x200
     c2e:	2200      	movs	r2, #0
     c30:	2500      	movs	r5, #0
     c32:	9000      	str	r0, [sp, #0]
     c34:	f000 ff52 	bl	1adc <__aeabi_memset>
     c38:	bb2d      	cbnz	r5, c86 <main+0xbba>
     c3a:	ad02      	add	r5, sp, #8
     c3c:	2168      	movs	r1, #104	; 0x68
     c3e:	4628      	mov	r0, r5
     c40:	f000 fdae 	bl	17a0 <_ZN7drivers3lcd6c1233242C12332$LT$$x27a$C$$x20S$C$$x20T$GT$.CharIO4putc20h10729067999520862174v0.0E>
     c44:	4628      	mov	r0, r5
     c46:	2165      	movs	r1, #101	; 0x65
     c48:	f000 fdaa 	bl	17a0 <_ZN7drivers3lcd6c1233242C12332$LT$$x27a$C$$x20S$C$$x20T$GT$.CharIO4putc20h10729067999520862174v0.0E>
     c4c:	4628      	mov	r0, r5
     c4e:	216c      	movs	r1, #108	; 0x6c
     c50:	f000 fda6 	bl	17a0 <_ZN7drivers3lcd6c1233242C12332$LT$$x27a$C$$x20S$C$$x20T$GT$.CharIO4putc20h10729067999520862174v0.0E>
     c54:	4628      	mov	r0, r5
     c56:	216c      	movs	r1, #108	; 0x6c
     c58:	f000 fda2 	bl	17a0 <_ZN7drivers3lcd6c1233242C12332$LT$$x27a$C$$x20S$C$$x20T$GT$.CharIO4putc20h10729067999520862174v0.0E>
     c5c:	4628      	mov	r0, r5
     c5e:	216f      	movs	r1, #111	; 0x6f
     c60:	f000 fd9e 	bl	17a0 <_ZN7drivers3lcd6c1233242C12332$LT$$x27a$C$$x20S$C$$x20T$GT$.CharIO4putc20h10729067999520862174v0.0E>
     c64:	4628      	mov	r0, r5
     c66:	2120      	movs	r1, #32
     c68:	f000 fd9a 	bl	17a0 <_ZN7drivers3lcd6c1233242C12332$LT$$x27a$C$$x20S$C$$x20T$GT$.CharIO4putc20h10729067999520862174v0.0E>
     c6c:	4628      	mov	r0, r5
     c6e:	216c      	movs	r1, #108	; 0x6c
     c70:	f000 fd96 	bl	17a0 <_ZN7drivers3lcd6c1233242C12332$LT$$x27a$C$$x20S$C$$x20T$GT$.CharIO4putc20h10729067999520862174v0.0E>
     c74:	4628      	mov	r0, r5
     c76:	2163      	movs	r1, #99	; 0x63
     c78:	f000 fd92 	bl	17a0 <_ZN7drivers3lcd6c1233242C12332$LT$$x27a$C$$x20S$C$$x20T$GT$.CharIO4putc20h10729067999520862174v0.0E>
     c7c:	4628      	mov	r0, r5
     c7e:	2164      	movs	r1, #100	; 0x64
     c80:	2500      	movs	r5, #0
     c82:	f000 fd8d 	bl	17a0 <_ZN7drivers3lcd6c1233242C12332$LT$$x27a$C$$x20S$C$$x20T$GT$.CharIO4putc20h10729067999520862174v0.0E>
     c86:	ae02      	add	r6, sp, #8
     c88:	4630      	mov	r0, r6
     c8a:	f000 f961 	bl	f50 <_ZN7drivers3lcd6c1233239C12332$LT$$x27a$C$$x20S$C$$x20T$GT$.LCD5flush21h113857806729637309524v0.0E>
     c8e:	f244 2a40 	movw	sl, #16960	; 0x4240
     c92:	f64c 4bcd 	movw	fp, #52429	; 0xcccd
     c96:	f20d 48cc 	addw	r8, sp, #1228	; 0x4cc
     c9a:	f04f 0966 	mov.w	r9, #102	; 0x66
     c9e:	f50d 6790 	add.w	r7, sp, #1152	; 0x480
     ca2:	2000      	movs	r0, #0
     ca4:	f2c0 0a0f 	movt	sl, #15
     ca8:	f6cc 4bcc 	movt	fp, #52428	; 0xcccc
     cac:	e001      	b.n	cb2 <main+0xbe6>
     cae:	9801      	ldr	r0, [sp, #4]
     cb0:	3001      	adds	r0, #1
     cb2:	9001      	str	r0, [sp, #4]
     cb4:	9800      	ldr	r0, [sp, #0]
     cb6:	f44f 7100 	mov.w	r1, #512	; 0x200
     cba:	2200      	movs	r2, #0
     cbc:	f000 ff0e 	bl	1adc <__aeabi_memset>
     cc0:	b9fd      	cbnz	r5, d02 <main+0xc36>
     cc2:	4630      	mov	r0, r6
     cc4:	2177      	movs	r1, #119	; 0x77
     cc6:	f000 fd6b 	bl	17a0 <_ZN7drivers3lcd6c1233242C12332$LT$$x27a$C$$x20S$C$$x20T$GT$.CharIO4putc20h10729067999520862174v0.0E>
     cca:	4630      	mov	r0, r6
     ccc:	2161      	movs	r1, #97	; 0x61
     cce:	f000 fd67 	bl	17a0 <_ZN7drivers3lcd6c1233242C12332$LT$$x27a$C$$x20S$C$$x20T$GT$.CharIO4putc20h10729067999520862174v0.0E>
     cd2:	4630      	mov	r0, r6
     cd4:	2169      	movs	r1, #105	; 0x69
     cd6:	f000 fd63 	bl	17a0 <_ZN7drivers3lcd6c1233242C12332$LT$$x27a$C$$x20S$C$$x20T$GT$.CharIO4putc20h10729067999520862174v0.0E>
     cda:	4630      	mov	r0, r6
     cdc:	2174      	movs	r1, #116	; 0x74
     cde:	f000 fd5f 	bl	17a0 <_ZN7drivers3lcd6c1233242C12332$LT$$x27a$C$$x20S$C$$x20T$GT$.CharIO4putc20h10729067999520862174v0.0E>
     ce2:	4630      	mov	r0, r6
     ce4:	2169      	movs	r1, #105	; 0x69
     ce6:	f000 fd5b 	bl	17a0 <_ZN7drivers3lcd6c1233242C12332$LT$$x27a$C$$x20S$C$$x20T$GT$.CharIO4putc20h10729067999520862174v0.0E>
     cea:	4630      	mov	r0, r6
     cec:	216e      	movs	r1, #110	; 0x6e
     cee:	f000 fd57 	bl	17a0 <_ZN7drivers3lcd6c1233242C12332$LT$$x27a$C$$x20S$C$$x20T$GT$.CharIO4putc20h10729067999520862174v0.0E>
     cf2:	4630      	mov	r0, r6
     cf4:	2167      	movs	r1, #103	; 0x67
     cf6:	f000 fd53 	bl	17a0 <_ZN7drivers3lcd6c1233242C12332$LT$$x27a$C$$x20S$C$$x20T$GT$.CharIO4putc20h10729067999520862174v0.0E>
     cfa:	4630      	mov	r0, r6
     cfc:	2120      	movs	r1, #32
     cfe:	f000 fd4f 	bl	17a0 <_ZN7drivers3lcd6c1233242C12332$LT$$x27a$C$$x20S$C$$x20T$GT$.CharIO4putc20h10729067999520862174v0.0E>
     d02:	9801      	ldr	r0, [sp, #4]
     d04:	2200      	movs	r2, #0
     d06:	9297      	str	r2, [sp, #604]	; 0x25c
     d08:	9296      	str	r2, [sp, #600]	; 0x258
     d0a:	9295      	str	r2, [sp, #596]	; 0x254
     d0c:	9294      	str	r2, [sp, #592]	; 0x250
     d0e:	9293      	str	r2, [sp, #588]	; 0x24c
     d10:	9292      	str	r2, [sp, #584]	; 0x248
     d12:	9291      	str	r2, [sp, #580]	; 0x244
     d14:	9290      	str	r2, [sp, #576]	; 0x240
     d16:	2800      	cmp	r0, #0
     d18:	d067      	beq.n	dea <main+0xd1e>
     d1a:	2a1f      	cmp	r2, #31
     d1c:	f200 809d 	bhi.w	e5a <main+0xd8e>
     d20:	fba0 130b 	umull	r1, r3, r0, fp
     d24:	280a      	cmp	r0, #10
     d26:	ea4f 01d3 	mov.w	r1, r3, lsr #3
     d2a:	eb01 0381 	add.w	r3, r1, r1, lsl #2
     d2e:	eba0 0343 	sub.w	r3, r0, r3, lsl #1
     d32:	4608      	mov	r0, r1
     d34:	f808 3002 	strb.w	r3, [r8, r2]
     d38:	f102 0201 	add.w	r2, r2, #1
     d3c:	d2ed      	bcs.n	d1a <main+0xc4e>
     d3e:	3a01      	subs	r2, #1
     d40:	2300      	movs	r3, #0
     d42:	2500      	movs	r5, #0
     d44:	f1b2 3fff 	cmp.w	r2, #4294967295	; 0xffffffff
     d48:	dd53      	ble.n	df2 <main+0xd26>
     d4a:	2030      	movs	r0, #48	; 0x30
     d4c:	2a1f      	cmp	r2, #31
     d4e:	f8cd 0480 	str.w	r0, [sp, #1152]	; 0x480
     d52:	f04f 0031 	mov.w	r0, #49	; 0x31
     d56:	f8cd 0484 	str.w	r0, [sp, #1156]	; 0x484
     d5a:	f04f 0032 	mov.w	r0, #50	; 0x32
     d5e:	f8cd 0488 	str.w	r0, [sp, #1160]	; 0x488
     d62:	f04f 0033 	mov.w	r0, #51	; 0x33
     d66:	f8cd 048c 	str.w	r0, [sp, #1164]	; 0x48c
     d6a:	f04f 0034 	mov.w	r0, #52	; 0x34
     d6e:	f8cd 0490 	str.w	r0, [sp, #1168]	; 0x490
     d72:	f04f 0035 	mov.w	r0, #53	; 0x35
     d76:	f8cd 0494 	str.w	r0, [sp, #1172]	; 0x494
     d7a:	f04f 0036 	mov.w	r0, #54	; 0x36
     d7e:	f8cd 0498 	str.w	r0, [sp, #1176]	; 0x498
     d82:	f04f 0037 	mov.w	r0, #55	; 0x37
     d86:	f8cd 049c 	str.w	r0, [sp, #1180]	; 0x49c
     d8a:	f04f 0038 	mov.w	r0, #56	; 0x38
     d8e:	f8cd 04a0 	str.w	r0, [sp, #1184]	; 0x4a0
     d92:	f04f 0039 	mov.w	r0, #57	; 0x39
     d96:	f8cd 04a4 	str.w	r0, [sp, #1188]	; 0x4a4
     d9a:	f04f 0061 	mov.w	r0, #97	; 0x61
     d9e:	f8cd 04a8 	str.w	r0, [sp, #1192]	; 0x4a8
     da2:	f04f 0062 	mov.w	r0, #98	; 0x62
     da6:	f8cd 04ac 	str.w	r0, [sp, #1196]	; 0x4ac
     daa:	f04f 0063 	mov.w	r0, #99	; 0x63
     dae:	f8cd 04b0 	str.w	r0, [sp, #1200]	; 0x4b0
     db2:	f04f 0064 	mov.w	r0, #100	; 0x64
     db6:	f8cd 04b4 	str.w	r0, [sp, #1204]	; 0x4b4
     dba:	f04f 0065 	mov.w	r0, #101	; 0x65
     dbe:	f8cd 04b8 	str.w	r0, [sp, #1208]	; 0x4b8
     dc2:	f8cd 94bc 	str.w	r9, [sp, #1212]	; 0x4bc
     dc6:	d84e      	bhi.n	e66 <main+0xd9a>
     dc8:	f818 5002 	ldrb.w	r5, [r8, r2]
     dcc:	2d0f      	cmp	r5, #15
     dce:	d850      	bhi.n	e72 <main+0xda6>
     dd0:	2b20      	cmp	r3, #32
     dd2:	d255      	bcs.n	e80 <main+0xdb4>
     dd4:	f857 0025 	ldr.w	r0, [r7, r5, lsl #2]
     dd8:	3a01      	subs	r2, #1
     dda:	2500      	movs	r5, #0
     ddc:	f1b2 3fff 	cmp.w	r2, #4294967295	; 0xffffffff
     de0:	54e0      	strb	r0, [r4, r3]
     de2:	f103 0301 	add.w	r3, r3, #1
     de6:	dcb0      	bgt.n	d4a <main+0xc7e>
     de8:	e003      	b.n	df2 <main+0xd26>
     dea:	2030      	movs	r0, #48	; 0x30
     dec:	2500      	movs	r5, #0
     dee:	f88d 0240 	strb.w	r0, [sp, #576]	; 0x240
     df2:	5d61      	ldrb	r1, [r4, r5]
     df4:	b129      	cbz	r1, e02 <main+0xd36>
     df6:	4630      	mov	r0, r6
     df8:	f000 fcd2 	bl	17a0 <_ZN7drivers3lcd6c1233242C12332$LT$$x27a$C$$x20S$C$$x20T$GT$.CharIO4putc20h10729067999520862174v0.0E>
     dfc:	3501      	adds	r5, #1
     dfe:	2d20      	cmp	r5, #32
     e00:	d1f7      	bne.n	df2 <main+0xd26>
     e02:	2500      	movs	r5, #0
     e04:	b9fd      	cbnz	r5, e46 <main+0xd7a>
     e06:	4630      	mov	r0, r6
     e08:	2120      	movs	r1, #32
     e0a:	f000 fcc9 	bl	17a0 <_ZN7drivers3lcd6c1233242C12332$LT$$x27a$C$$x20S$C$$x20T$GT$.CharIO4putc20h10729067999520862174v0.0E>
     e0e:	4630      	mov	r0, r6
     e10:	2173      	movs	r1, #115	; 0x73
     e12:	f000 fcc5 	bl	17a0 <_ZN7drivers3lcd6c1233242C12332$LT$$x27a$C$$x20S$C$$x20T$GT$.CharIO4putc20h10729067999520862174v0.0E>
     e16:	4630      	mov	r0, r6
     e18:	2165      	movs	r1, #101	; 0x65
     e1a:	f000 fcc1 	bl	17a0 <_ZN7drivers3lcd6c1233242C12332$LT$$x27a$C$$x20S$C$$x20T$GT$.CharIO4putc20h10729067999520862174v0.0E>
     e1e:	4630      	mov	r0, r6
     e20:	2163      	movs	r1, #99	; 0x63
     e22:	f000 fcbd 	bl	17a0 <_ZN7drivers3lcd6c1233242C12332$LT$$x27a$C$$x20S$C$$x20T$GT$.CharIO4putc20h10729067999520862174v0.0E>
     e26:	4630      	mov	r0, r6
     e28:	216f      	movs	r1, #111	; 0x6f
     e2a:	f000 fcb9 	bl	17a0 <_ZN7drivers3lcd6c1233242C12332$LT$$x27a$C$$x20S$C$$x20T$GT$.CharIO4putc20h10729067999520862174v0.0E>
     e2e:	4630      	mov	r0, r6
     e30:	216e      	movs	r1, #110	; 0x6e
     e32:	f000 fcb5 	bl	17a0 <_ZN7drivers3lcd6c1233242C12332$LT$$x27a$C$$x20S$C$$x20T$GT$.CharIO4putc20h10729067999520862174v0.0E>
     e36:	4630      	mov	r0, r6
     e38:	2164      	movs	r1, #100	; 0x64
     e3a:	f000 fcb1 	bl	17a0 <_ZN7drivers3lcd6c1233242C12332$LT$$x27a$C$$x20S$C$$x20T$GT$.CharIO4putc20h10729067999520862174v0.0E>
     e3e:	4630      	mov	r0, r6
     e40:	2173      	movs	r1, #115	; 0x73
     e42:	f000 fcad 	bl	17a0 <_ZN7drivers3lcd6c1233242C12332$LT$$x27a$C$$x20S$C$$x20T$GT$.CharIO4putc20h10729067999520862174v0.0E>
     e46:	4630      	mov	r0, r6
     e48:	f000 f882 	bl	f50 <_ZN7drivers3lcd6c1233239C12332$LT$$x27a$C$$x20S$C$$x20T$GT$.LCD5flush21h113857806729637309524v0.0E>
     e4c:	988e      	ldr	r0, [sp, #568]	; 0x238
     e4e:	6881      	ldr	r1, [r0, #8]
     e50:	6882      	ldr	r2, [r0, #8]
     e52:	1a52      	subs	r2, r2, r1
     e54:	4552      	cmp	r2, sl
     e56:	d3fb      	bcc.n	e50 <main+0xd84>
     e58:	e729      	b.n	cae <main+0xbe2>
     e5a:	f50d 6098 	add.w	r0, sp, #1216	; 0x4c0
     e5e:	2122      	movs	r1, #34	; 0x22
     e60:	2320      	movs	r3, #32
     e62:	f000 fe0b 	bl	1a7c <_ZN7failure17fail_bounds_check20h15b60dbe339b6e592Xv11v0.11.0.preE>
     e66:	f50d 608f 	add.w	r0, sp, #1144	; 0x478
     e6a:	212c      	movs	r1, #44	; 0x2c
     e6c:	2320      	movs	r3, #32
     e6e:	f000 fe05 	bl	1a7c <_ZN7failure17fail_bounds_check20h15b60dbe339b6e592Xv11v0.11.0.preE>
     e72:	f50d 608e 	add.w	r0, sp, #1136	; 0x470
     e76:	212c      	movs	r1, #44	; 0x2c
     e78:	462a      	mov	r2, r5
     e7a:	2310      	movs	r3, #16
     e7c:	f000 fdfe 	bl	1a7c <_ZN7failure17fail_bounds_check20h15b60dbe339b6e592Xv11v0.11.0.preE>
     e80:	461a      	mov	r2, r3
     e82:	f50d 608d 	add.w	r0, sp, #1128	; 0x468
     e86:	212e      	movs	r1, #46	; 0x2e
     e88:	2320      	movs	r3, #32
     e8a:	f000 fdf7 	bl	1a7c <_ZN7failure17fail_bounds_check20h15b60dbe339b6e592Xv11v0.11.0.preE>
     e8e:	defedefe 	mrcle	14, 7, sp, cr14, cr14, {7}
     e92:	defedefe 	mrcle	14, 7, sp, cr14, cr14, {7}
     e96:	defedefe 	mrcle	14, 7, sp, cr14, cr14, {7}
     e9a:	defedefe 	mrcle	14, 7, sp, cr14, cr14, {7}
     e9e:	defedefe 	mrcle	14, 7, sp, cr14, cr14, {7}
	...

00000ea4 <__morestack>:
     ea4:	4668      	mov	r0, sp
     ea6:	f3ef 8109 	mrs	r1, PSP
     eaa:	4281      	cmp	r1, r0
     eac:	bf01      	itttt	eq
     eae:	f641 2039 	movweq	r0, #6713	; 0x1a39
     eb2:	f2c0 0000 	movteq	r0, #0
     eb6:	2100      	moveq	r1, #0
     eb8:	f000 be4c 	beq.w	1b54 <syscall>
     ebc:	0000defe 	strdeq	sp, [r0], -lr

00000ec0 <task_scheduler>:
     ec0:	e92d 4800 	stmdb	sp!, {fp, lr}
     ec4:	b082      	sub	sp, #8
     ec6:	f240 0e00 	movw	lr, #0
     eca:	f242 0000 	movw	r0, #8192	; 0x2000
     ece:	f240 0c38 	movw	ip, #56	; 0x38
     ed2:	f2c1 0e00 	movt	lr, #4096	; 0x1000
     ed6:	f2c1 0000 	movt	r0, #4096	; 0x1000
     eda:	f2c1 0c00 	movt	ip, #4096	; 0x1000
     ede:	f8de 2000 	ldr.w	r2, [lr]
     ee2:	f5a0 7080 	sub.w	r0, r0, #256	; 0x100
     ee6:	f8cc 0000 	str.w	r0, [ip]
     eea:	2a04      	cmp	r2, #4
     eec:	d22a      	bcs.n	f44 <task_scheduler+0x84>
     eee:	eb02 0042 	add.w	r0, r2, r2, lsl #1
     ef2:	f3ef 8109 	mrs	r1, PSP
     ef6:	eb0e 0080 	add.w	r0, lr, r0, lsl #2
     efa:	6041      	str	r1, [r0, #4]
     efc:	f8de 0000 	ldr.w	r0, [lr]
     f00:	eb00 0140 	add.w	r1, r0, r0, lsl #1
     f04:	1c42      	adds	r2, r0, #1
     f06:	eb0e 0181 	add.w	r1, lr, r1, lsl #2
     f0a:	f101 0318 	add.w	r3, r1, #24
     f0e:	f8ce 2000 	str.w	r2, [lr]
     f12:	2a04      	cmp	r2, #4
     f14:	d216      	bcs.n	f44 <task_scheduler+0x84>
     f16:	f853 1c04 	ldr.w	r1, [r3, #-4]
     f1a:	f103 000c 	add.w	r0, r3, #12
     f1e:	781b      	ldrb	r3, [r3, #0]
     f20:	3201      	adds	r2, #1
     f22:	2b00      	cmp	r3, #0
     f24:	4603      	mov	r3, r0
     f26:	d1f2      	bne.n	f0e <task_scheduler+0x4e>
     f28:	4603      	mov	r3, r0
     f2a:	2900      	cmp	r1, #0
     f2c:	d0ef      	beq.n	f0e <task_scheduler+0x4e>
     f2e:	f850 1c14 	ldr.w	r1, [r0, #-20]
     f32:	f850 0c10 	ldr.w	r0, [r0, #-16]
     f36:	f381 8809 	msr	PSP, r1
     f3a:	f8cc 0000 	str.w	r0, [ip]
     f3e:	b002      	add	sp, #8
     f40:	e8bd 8800 	ldmia.w	sp!, {fp, pc}
     f44:	4668      	mov	r0, sp
     f46:	2164      	movs	r1, #100	; 0x64
     f48:	2304      	movs	r3, #4
     f4a:	f000 fd97 	bl	1a7c <_ZN7failure17fail_bounds_check20h15b60dbe339b6e592Xv11v0.11.0.preE>
	...

00000f50 <_ZN7drivers3lcd6c1233239C12332$LT$$x27a$C$$x20S$C$$x20T$GT$.LCD5flush21h113857806729637309524v0.0E>:
     f50:	b430      	push	{r4, r5}
     f52:	ee1d 4f70 	mrc	15, 0, r4, cr13, cr0, {3}
     f56:	466d      	mov	r5, sp
     f58:	e594      	b.n	a84 <main+0x9b8>
     f5a:	4004      	ands	r4, r0
     f5c:	42ac      	cmp	r4, r5
     f5e:	d308      	bcc.n	f72 <_ZN7drivers3lcd6c1233239C12332$LT$$x27a$C$$x20S$C$$x20T$GT$.LCD5flush21h113857806729637309524v0.0E+0x22>
     f60:	2410      	movs	r4, #16
     f62:	2500      	movs	r5, #0
     f64:	b500      	push	{lr}
     f66:	f7ff ff9d 	bl	ea4 <__morestack>
     f6a:	f85d eb04 	ldr.w	lr, [sp], #4
     f6e:	bc30      	pop	{r4, r5}
     f70:	4770      	bx	lr
     f72:	bc30      	pop	{r4, r5}
     f74:	b570      	push	{r4, r5, r6, lr}
     f76:	6881      	ldr	r1, [r0, #8]
     f78:	780a      	ldrb	r2, [r1, #0]
     f7a:	2a03      	cmp	r2, #3
     f7c:	d806      	bhi.n	f8c <_ZN7drivers3lcd6c1233239C12332$LT$$x27a$C$$x20S$C$$x20T$GT$.LCD5flush21h113857806729637309524v0.0E+0x3c>
     f7e:	f242 73c4 	movw	r3, #10180	; 0x27c4
     f82:	f2c0 0300 	movt	r3, #0
     f86:	f853 2022 	ldr.w	r2, [r3, r2, lsl #2]
     f8a:	e003      	b.n	f94 <_ZN7drivers3lcd6c1233239C12332$LT$$x27a$C$$x20S$C$$x20T$GT$.LCD5flush21h113857806729637309524v0.0E+0x44>
     f8c:	f24c 0280 	movw	r2, #49280	; 0xc080
     f90:	f2c2 0209 	movt	r2, #8201	; 0x2009
     f94:	784b      	ldrb	r3, [r1, #1]
     f96:	2101      	movs	r1, #1
     f98:	fa01 f303 	lsl.w	r3, r1, r3
     f9c:	61d3      	str	r3, [r2, #28]
     f9e:	68c2      	ldr	r2, [r0, #12]
     fa0:	7813      	ldrb	r3, [r2, #0]
     fa2:	2b03      	cmp	r3, #3
     fa4:	d806      	bhi.n	fb4 <_ZN7drivers3lcd6c1233239C12332$LT$$x27a$C$$x20S$C$$x20T$GT$.LCD5flush21h113857806729637309524v0.0E+0x64>
     fa6:	f242 76c4 	movw	r6, #10180	; 0x27c4
     faa:	f2c0 0600 	movt	r6, #0
     fae:	f856 3023 	ldr.w	r3, [r6, r3, lsl #2]
     fb2:	e003      	b.n	fbc <_ZN7drivers3lcd6c1233239C12332$LT$$x27a$C$$x20S$C$$x20T$GT$.LCD5flush21h113857806729637309524v0.0E+0x6c>
     fb4:	f24c 0380 	movw	r3, #49280	; 0xc080
     fb8:	f2c2 0309 	movt	r3, #8201	; 0x2009
     fbc:	7852      	ldrb	r2, [r2, #1]
     fbe:	4091      	lsls	r1, r2
     fc0:	61d9      	str	r1, [r3, #28]
     fc2:	6801      	ldr	r1, [r0, #0]
     fc4:	684a      	ldr	r2, [r1, #4]
     fc6:	68d3      	ldr	r3, [r2, #12]
     fc8:	f013 0f02 	tst.w	r3, #2
     fcc:	d0fb      	beq.n	fc6 <_ZN7drivers3lcd6c1233239C12332$LT$$x27a$C$$x20S$C$$x20T$GT$.LCD5flush21h113857806729637309524v0.0E+0x76>
     fce:	2300      	movs	r3, #0
     fd0:	6093      	str	r3, [r2, #8]
     fd2:	6849      	ldr	r1, [r1, #4]
     fd4:	68ca      	ldr	r2, [r1, #12]
     fd6:	f012 0f10 	tst.w	r2, #16
     fda:	d1fb      	bne.n	fd4 <_ZN7drivers3lcd6c1233239C12332$LT$$x27a$C$$x20S$C$$x20T$GT$.LCD5flush21h113857806729637309524v0.0E+0x84>
     fdc:	68c1      	ldr	r1, [r0, #12]
     fde:	780a      	ldrb	r2, [r1, #0]
     fe0:	2a03      	cmp	r2, #3
     fe2:	d806      	bhi.n	ff2 <_ZN7drivers3lcd6c1233239C12332$LT$$x27a$C$$x20S$C$$x20T$GT$.LCD5flush21h113857806729637309524v0.0E+0xa2>
     fe4:	f242 73c4 	movw	r3, #10180	; 0x27c4
     fe8:	f2c0 0300 	movt	r3, #0
     fec:	f853 2022 	ldr.w	r2, [r3, r2, lsl #2]
     ff0:	e003      	b.n	ffa <_ZN7drivers3lcd6c1233239C12332$LT$$x27a$C$$x20S$C$$x20T$GT$.LCD5flush21h113857806729637309524v0.0E+0xaa>
     ff2:	f24c 0280 	movw	r2, #49280	; 0xc080
     ff6:	f2c2 0209 	movt	r2, #8201	; 0x2009
     ffa:	784b      	ldrb	r3, [r1, #1]
     ffc:	2101      	movs	r1, #1
     ffe:	fa01 f303 	lsl.w	r3, r1, r3
    1002:	6193      	str	r3, [r2, #24]
    1004:	6882      	ldr	r2, [r0, #8]
    1006:	7813      	ldrb	r3, [r2, #0]
    1008:	2b03      	cmp	r3, #3
    100a:	d806      	bhi.n	101a <_ZN7drivers3lcd6c1233239C12332$LT$$x27a$C$$x20S$C$$x20T$GT$.LCD5flush21h113857806729637309524v0.0E+0xca>
    100c:	f242 76c4 	movw	r6, #10180	; 0x27c4
    1010:	f2c0 0600 	movt	r6, #0
    1014:	f856 3023 	ldr.w	r3, [r6, r3, lsl #2]
    1018:	e003      	b.n	1022 <_ZN7drivers3lcd6c1233239C12332$LT$$x27a$C$$x20S$C$$x20T$GT$.LCD5flush21h113857806729637309524v0.0E+0xd2>
    101a:	f24c 0380 	movw	r3, #49280	; 0xc080
    101e:	f2c2 0309 	movt	r3, #8201	; 0x2009
    1022:	7852      	ldrb	r2, [r2, #1]
    1024:	4091      	lsls	r1, r2
    1026:	61d9      	str	r1, [r3, #28]
    1028:	68c1      	ldr	r1, [r0, #12]
    102a:	780a      	ldrb	r2, [r1, #0]
    102c:	2a03      	cmp	r2, #3
    102e:	d806      	bhi.n	103e <_ZN7drivers3lcd6c1233239C12332$LT$$x27a$C$$x20S$C$$x20T$GT$.LCD5flush21h113857806729637309524v0.0E+0xee>
    1030:	f242 73c4 	movw	r3, #10180	; 0x27c4
    1034:	f2c0 0300 	movt	r3, #0
    1038:	f853 2022 	ldr.w	r2, [r3, r2, lsl #2]
    103c:	e003      	b.n	1046 <_ZN7drivers3lcd6c1233239C12332$LT$$x27a$C$$x20S$C$$x20T$GT$.LCD5flush21h113857806729637309524v0.0E+0xf6>
    103e:	f24c 0280 	movw	r2, #49280	; 0xc080
    1042:	f2c2 0209 	movt	r2, #8201	; 0x2009
    1046:	7849      	ldrb	r1, [r1, #1]
    1048:	2301      	movs	r3, #1
    104a:	fa03 f101 	lsl.w	r1, r3, r1
    104e:	61d1      	str	r1, [r2, #28]
    1050:	6801      	ldr	r1, [r0, #0]
    1052:	684a      	ldr	r2, [r1, #4]
    1054:	68d3      	ldr	r3, [r2, #12]
    1056:	f013 0f02 	tst.w	r3, #2
    105a:	d0fb      	beq.n	1054 <_ZN7drivers3lcd6c1233239C12332$LT$$x27a$C$$x20S$C$$x20T$GT$.LCD5flush21h113857806729637309524v0.0E+0x104>
    105c:	2310      	movs	r3, #16
    105e:	6093      	str	r3, [r2, #8]
    1060:	6849      	ldr	r1, [r1, #4]
    1062:	68ca      	ldr	r2, [r1, #12]
    1064:	f012 0f10 	tst.w	r2, #16
    1068:	d1fb      	bne.n	1062 <_ZN7drivers3lcd6c1233239C12332$LT$$x27a$C$$x20S$C$$x20T$GT$.LCD5flush21h113857806729637309524v0.0E+0x112>
    106a:	68c1      	ldr	r1, [r0, #12]
    106c:	780a      	ldrb	r2, [r1, #0]
    106e:	2a03      	cmp	r2, #3
    1070:	d806      	bhi.n	1080 <_ZN7drivers3lcd6c1233239C12332$LT$$x27a$C$$x20S$C$$x20T$GT$.LCD5flush21h113857806729637309524v0.0E+0x130>
    1072:	f242 73c4 	movw	r3, #10180	; 0x27c4
    1076:	f2c0 0300 	movt	r3, #0
    107a:	f853 2022 	ldr.w	r2, [r3, r2, lsl #2]
    107e:	e003      	b.n	1088 <_ZN7drivers3lcd6c1233239C12332$LT$$x27a$C$$x20S$C$$x20T$GT$.LCD5flush21h113857806729637309524v0.0E+0x138>
    1080:	f24c 0280 	movw	r2, #49280	; 0xc080
    1084:	f2c2 0209 	movt	r2, #8201	; 0x2009
    1088:	784b      	ldrb	r3, [r1, #1]
    108a:	2101      	movs	r1, #1
    108c:	fa01 f303 	lsl.w	r3, r1, r3
    1090:	6193      	str	r3, [r2, #24]
    1092:	6882      	ldr	r2, [r0, #8]
    1094:	7813      	ldrb	r3, [r2, #0]
    1096:	2b03      	cmp	r3, #3
    1098:	d806      	bhi.n	10a8 <_ZN7drivers3lcd6c1233239C12332$LT$$x27a$C$$x20S$C$$x20T$GT$.LCD5flush21h113857806729637309524v0.0E+0x158>
    109a:	f242 76c4 	movw	r6, #10180	; 0x27c4
    109e:	f2c0 0600 	movt	r6, #0
    10a2:	f856 3023 	ldr.w	r3, [r6, r3, lsl #2]
    10a6:	e003      	b.n	10b0 <_ZN7drivers3lcd6c1233239C12332$LT$$x27a$C$$x20S$C$$x20T$GT$.LCD5flush21h113857806729637309524v0.0E+0x160>
    10a8:	f24c 0380 	movw	r3, #49280	; 0xc080
    10ac:	f2c2 0309 	movt	r3, #8201	; 0x2009
    10b0:	7852      	ldrb	r2, [r2, #1]
    10b2:	4091      	lsls	r1, r2
    10b4:	61d9      	str	r1, [r3, #28]
    10b6:	68c1      	ldr	r1, [r0, #12]
    10b8:	780a      	ldrb	r2, [r1, #0]
    10ba:	2a03      	cmp	r2, #3
    10bc:	d806      	bhi.n	10cc <_ZN7drivers3lcd6c1233239C12332$LT$$x27a$C$$x20S$C$$x20T$GT$.LCD5flush21h113857806729637309524v0.0E+0x17c>
    10be:	f242 73c4 	movw	r3, #10180	; 0x27c4
    10c2:	f2c0 0300 	movt	r3, #0
    10c6:	f853 2022 	ldr.w	r2, [r3, r2, lsl #2]
    10ca:	e003      	b.n	10d4 <_ZN7drivers3lcd6c1233239C12332$LT$$x27a$C$$x20S$C$$x20T$GT$.LCD5flush21h113857806729637309524v0.0E+0x184>
    10cc:	f24c 0280 	movw	r2, #49280	; 0xc080
    10d0:	f2c2 0209 	movt	r2, #8201	; 0x2009
    10d4:	7849      	ldrb	r1, [r1, #1]
    10d6:	2301      	movs	r3, #1
    10d8:	fa03 f101 	lsl.w	r1, r3, r1
    10dc:	61d1      	str	r1, [r2, #28]
    10de:	6801      	ldr	r1, [r0, #0]
    10e0:	684a      	ldr	r2, [r1, #4]
    10e2:	68d3      	ldr	r3, [r2, #12]
    10e4:	f013 0f02 	tst.w	r3, #2
    10e8:	d0fb      	beq.n	10e2 <_ZN7drivers3lcd6c1233239C12332$LT$$x27a$C$$x20S$C$$x20T$GT$.LCD5flush21h113857806729637309524v0.0E+0x192>
    10ea:	23b0      	movs	r3, #176	; 0xb0
    10ec:	6093      	str	r3, [r2, #8]
    10ee:	6849      	ldr	r1, [r1, #4]
    10f0:	68ca      	ldr	r2, [r1, #12]
    10f2:	f012 0f10 	tst.w	r2, #16
    10f6:	d1fb      	bne.n	10f0 <_ZN7drivers3lcd6c1233239C12332$LT$$x27a$C$$x20S$C$$x20T$GT$.LCD5flush21h113857806729637309524v0.0E+0x1a0>
    10f8:	68c1      	ldr	r1, [r0, #12]
    10fa:	780a      	ldrb	r2, [r1, #0]
    10fc:	2a03      	cmp	r2, #3
    10fe:	d806      	bhi.n	110e <_ZN7drivers3lcd6c1233239C12332$LT$$x27a$C$$x20S$C$$x20T$GT$.LCD5flush21h113857806729637309524v0.0E+0x1be>
    1100:	f242 73c4 	movw	r3, #10180	; 0x27c4
    1104:	f2c0 0300 	movt	r3, #0
    1108:	f853 2022 	ldr.w	r2, [r3, r2, lsl #2]
    110c:	e003      	b.n	1116 <_ZN7drivers3lcd6c1233239C12332$LT$$x27a$C$$x20S$C$$x20T$GT$.LCD5flush21h113857806729637309524v0.0E+0x1c6>
    110e:	f24c 0280 	movw	r2, #49280	; 0xc080
    1112:	f2c2 0209 	movt	r2, #8201	; 0x2009
    1116:	7849      	ldrb	r1, [r1, #1]
    1118:	f04f 0e01 	mov.w	lr, #1
    111c:	fa0e f101 	lsl.w	r1, lr, r1
    1120:	6191      	str	r1, [r2, #24]
    1122:	6881      	ldr	r1, [r0, #8]
    1124:	780a      	ldrb	r2, [r1, #0]
    1126:	2a03      	cmp	r2, #3
    1128:	d806      	bhi.n	1138 <_ZN7drivers3lcd6c1233239C12332$LT$$x27a$C$$x20S$C$$x20T$GT$.LCD5flush21h113857806729637309524v0.0E+0x1e8>
    112a:	f242 73c4 	movw	r3, #10180	; 0x27c4
    112e:	f2c0 0300 	movt	r3, #0
    1132:	f853 2022 	ldr.w	r2, [r3, r2, lsl #2]
    1136:	e003      	b.n	1140 <_ZN7drivers3lcd6c1233239C12332$LT$$x27a$C$$x20S$C$$x20T$GT$.LCD5flush21h113857806729637309524v0.0E+0x1f0>
    1138:	f24c 0280 	movw	r2, #49280	; 0xc080
    113c:	f2c2 0209 	movt	r2, #8201	; 0x2009
    1140:	7849      	ldrb	r1, [r1, #1]
    1142:	f242 7cc4 	movw	ip, #10180	; 0x27c4
    1146:	2300      	movs	r3, #0
    1148:	f2c0 0c00 	movt	ip, #0
    114c:	fa0e f101 	lsl.w	r1, lr, r1
    1150:	6191      	str	r1, [r2, #24]
    1152:	f24c 0180 	movw	r1, #49280	; 0xc080
    1156:	f2c2 0109 	movt	r1, #8201	; 0x2009
    115a:	6884      	ldr	r4, [r0, #8]
    115c:	18c2      	adds	r2, r0, r3
    115e:	460d      	mov	r5, r1
    1160:	7d12      	ldrb	r2, [r2, #20]
    1162:	7826      	ldrb	r6, [r4, #0]
    1164:	2e03      	cmp	r6, #3
    1166:	bf98      	it	ls
    1168:	f85c 5026 	ldrls.w	r5, [ip, r6, lsl #2]
    116c:	7864      	ldrb	r4, [r4, #1]
    116e:	fa0e f404 	lsl.w	r4, lr, r4
    1172:	61ac      	str	r4, [r5, #24]
    1174:	460d      	mov	r5, r1
    1176:	68c4      	ldr	r4, [r0, #12]
    1178:	7826      	ldrb	r6, [r4, #0]
    117a:	2e03      	cmp	r6, #3
    117c:	bf98      	it	ls
    117e:	f85c 5026 	ldrls.w	r5, [ip, r6, lsl #2]
    1182:	7864      	ldrb	r4, [r4, #1]
    1184:	fa0e f404 	lsl.w	r4, lr, r4
    1188:	61ec      	str	r4, [r5, #28]
    118a:	6804      	ldr	r4, [r0, #0]
    118c:	6865      	ldr	r5, [r4, #4]
    118e:	68ee      	ldr	r6, [r5, #12]
    1190:	f016 0f02 	tst.w	r6, #2
    1194:	d0fb      	beq.n	118e <_ZN7drivers3lcd6c1233239C12332$LT$$x27a$C$$x20S$C$$x20T$GT$.LCD5flush21h113857806729637309524v0.0E+0x23e>
    1196:	60aa      	str	r2, [r5, #8]
    1198:	6862      	ldr	r2, [r4, #4]
    119a:	68d4      	ldr	r4, [r2, #12]
    119c:	f014 0f10 	tst.w	r4, #16
    11a0:	d1fb      	bne.n	119a <_ZN7drivers3lcd6c1233239C12332$LT$$x27a$C$$x20S$C$$x20T$GT$.LCD5flush21h113857806729637309524v0.0E+0x24a>
    11a2:	68c2      	ldr	r2, [r0, #12]
    11a4:	460c      	mov	r4, r1
    11a6:	3301      	adds	r3, #1
    11a8:	7815      	ldrb	r5, [r2, #0]
    11aa:	2d03      	cmp	r5, #3
    11ac:	bf98      	it	ls
    11ae:	f85c 4025 	ldrls.w	r4, [ip, r5, lsl #2]
    11b2:	7852      	ldrb	r2, [r2, #1]
    11b4:	2b80      	cmp	r3, #128	; 0x80
    11b6:	fa0e f202 	lsl.w	r2, lr, r2
    11ba:	61a2      	str	r2, [r4, #24]
    11bc:	d1cd      	bne.n	115a <_ZN7drivers3lcd6c1233239C12332$LT$$x27a$C$$x20S$C$$x20T$GT$.LCD5flush21h113857806729637309524v0.0E+0x20a>
    11be:	6881      	ldr	r1, [r0, #8]
    11c0:	780a      	ldrb	r2, [r1, #0]
    11c2:	2a03      	cmp	r2, #3
    11c4:	d802      	bhi.n	11cc <_ZN7drivers3lcd6c1233239C12332$LT$$x27a$C$$x20S$C$$x20T$GT$.LCD5flush21h113857806729637309524v0.0E+0x27c>
    11c6:	f85c 2022 	ldr.w	r2, [ip, r2, lsl #2]
    11ca:	e003      	b.n	11d4 <_ZN7drivers3lcd6c1233239C12332$LT$$x27a$C$$x20S$C$$x20T$GT$.LCD5flush21h113857806729637309524v0.0E+0x284>
    11cc:	f24c 0280 	movw	r2, #49280	; 0xc080
    11d0:	f2c2 0209 	movt	r2, #8201	; 0x2009
    11d4:	784b      	ldrb	r3, [r1, #1]
    11d6:	2101      	movs	r1, #1
    11d8:	fa01 f303 	lsl.w	r3, r1, r3
    11dc:	61d3      	str	r3, [r2, #28]
    11de:	68c2      	ldr	r2, [r0, #12]
    11e0:	7813      	ldrb	r3, [r2, #0]
    11e2:	2b03      	cmp	r3, #3
    11e4:	d802      	bhi.n	11ec <_ZN7drivers3lcd6c1233239C12332$LT$$x27a$C$$x20S$C$$x20T$GT$.LCD5flush21h113857806729637309524v0.0E+0x29c>
    11e6:	f85c 3023 	ldr.w	r3, [ip, r3, lsl #2]
    11ea:	e003      	b.n	11f4 <_ZN7drivers3lcd6c1233239C12332$LT$$x27a$C$$x20S$C$$x20T$GT$.LCD5flush21h113857806729637309524v0.0E+0x2a4>
    11ec:	f24c 0380 	movw	r3, #49280	; 0xc080
    11f0:	f2c2 0309 	movt	r3, #8201	; 0x2009
    11f4:	7852      	ldrb	r2, [r2, #1]
    11f6:	4091      	lsls	r1, r2
    11f8:	61d9      	str	r1, [r3, #28]
    11fa:	6801      	ldr	r1, [r0, #0]
    11fc:	684a      	ldr	r2, [r1, #4]
    11fe:	68d3      	ldr	r3, [r2, #12]
    1200:	f013 0f02 	tst.w	r3, #2
    1204:	d0fb      	beq.n	11fe <_ZN7drivers3lcd6c1233239C12332$LT$$x27a$C$$x20S$C$$x20T$GT$.LCD5flush21h113857806729637309524v0.0E+0x2ae>
    1206:	2300      	movs	r3, #0
    1208:	6093      	str	r3, [r2, #8]
    120a:	6849      	ldr	r1, [r1, #4]
    120c:	68ca      	ldr	r2, [r1, #12]
    120e:	f012 0f10 	tst.w	r2, #16
    1212:	d1fb      	bne.n	120c <_ZN7drivers3lcd6c1233239C12332$LT$$x27a$C$$x20S$C$$x20T$GT$.LCD5flush21h113857806729637309524v0.0E+0x2bc>
    1214:	68c1      	ldr	r1, [r0, #12]
    1216:	780a      	ldrb	r2, [r1, #0]
    1218:	2a03      	cmp	r2, #3
    121a:	d802      	bhi.n	1222 <_ZN7drivers3lcd6c1233239C12332$LT$$x27a$C$$x20S$C$$x20T$GT$.LCD5flush21h113857806729637309524v0.0E+0x2d2>
    121c:	f85c 2022 	ldr.w	r2, [ip, r2, lsl #2]
    1220:	e003      	b.n	122a <_ZN7drivers3lcd6c1233239C12332$LT$$x27a$C$$x20S$C$$x20T$GT$.LCD5flush21h113857806729637309524v0.0E+0x2da>
    1222:	f24c 0280 	movw	r2, #49280	; 0xc080
    1226:	f2c2 0209 	movt	r2, #8201	; 0x2009
    122a:	784b      	ldrb	r3, [r1, #1]
    122c:	2101      	movs	r1, #1
    122e:	fa01 f303 	lsl.w	r3, r1, r3
    1232:	6193      	str	r3, [r2, #24]
    1234:	6882      	ldr	r2, [r0, #8]
    1236:	7813      	ldrb	r3, [r2, #0]
    1238:	2b03      	cmp	r3, #3
    123a:	d802      	bhi.n	1242 <_ZN7drivers3lcd6c1233239C12332$LT$$x27a$C$$x20S$C$$x20T$GT$.LCD5flush21h113857806729637309524v0.0E+0x2f2>
    123c:	f85c 3023 	ldr.w	r3, [ip, r3, lsl #2]
    1240:	e003      	b.n	124a <_ZN7drivers3lcd6c1233239C12332$LT$$x27a$C$$x20S$C$$x20T$GT$.LCD5flush21h113857806729637309524v0.0E+0x2fa>
    1242:	f24c 0380 	movw	r3, #49280	; 0xc080
    1246:	f2c2 0309 	movt	r3, #8201	; 0x2009
    124a:	7852      	ldrb	r2, [r2, #1]
    124c:	4091      	lsls	r1, r2
    124e:	61d9      	str	r1, [r3, #28]
    1250:	68c1      	ldr	r1, [r0, #12]
    1252:	780a      	ldrb	r2, [r1, #0]
    1254:	2a03      	cmp	r2, #3
    1256:	d802      	bhi.n	125e <_ZN7drivers3lcd6c1233239C12332$LT$$x27a$C$$x20S$C$$x20T$GT$.LCD5flush21h113857806729637309524v0.0E+0x30e>
    1258:	f85c 2022 	ldr.w	r2, [ip, r2, lsl #2]
    125c:	e003      	b.n	1266 <_ZN7drivers3lcd6c1233239C12332$LT$$x27a$C$$x20S$C$$x20T$GT$.LCD5flush21h113857806729637309524v0.0E+0x316>
    125e:	f24c 0280 	movw	r2, #49280	; 0xc080
    1262:	f2c2 0209 	movt	r2, #8201	; 0x2009
    1266:	7849      	ldrb	r1, [r1, #1]
    1268:	2301      	movs	r3, #1
    126a:	fa03 f101 	lsl.w	r1, r3, r1
    126e:	61d1      	str	r1, [r2, #28]
    1270:	6801      	ldr	r1, [r0, #0]
    1272:	684a      	ldr	r2, [r1, #4]
    1274:	68d3      	ldr	r3, [r2, #12]
    1276:	f013 0f02 	tst.w	r3, #2
    127a:	d0fb      	beq.n	1274 <_ZN7drivers3lcd6c1233239C12332$LT$$x27a$C$$x20S$C$$x20T$GT$.LCD5flush21h113857806729637309524v0.0E+0x324>
    127c:	2310      	movs	r3, #16
    127e:	6093      	str	r3, [r2, #8]
    1280:	6849      	ldr	r1, [r1, #4]
    1282:	68ca      	ldr	r2, [r1, #12]
    1284:	f012 0f10 	tst.w	r2, #16
    1288:	d1fb      	bne.n	1282 <_ZN7drivers3lcd6c1233239C12332$LT$$x27a$C$$x20S$C$$x20T$GT$.LCD5flush21h113857806729637309524v0.0E+0x332>
    128a:	68c1      	ldr	r1, [r0, #12]
    128c:	780a      	ldrb	r2, [r1, #0]
    128e:	2a03      	cmp	r2, #3
    1290:	d802      	bhi.n	1298 <_ZN7drivers3lcd6c1233239C12332$LT$$x27a$C$$x20S$C$$x20T$GT$.LCD5flush21h113857806729637309524v0.0E+0x348>
    1292:	f85c 2022 	ldr.w	r2, [ip, r2, lsl #2]
    1296:	e003      	b.n	12a0 <_ZN7drivers3lcd6c1233239C12332$LT$$x27a$C$$x20S$C$$x20T$GT$.LCD5flush21h113857806729637309524v0.0E+0x350>
    1298:	f24c 0280 	movw	r2, #49280	; 0xc080
    129c:	f2c2 0209 	movt	r2, #8201	; 0x2009
    12a0:	784b      	ldrb	r3, [r1, #1]
    12a2:	2101      	movs	r1, #1
    12a4:	fa01 f303 	lsl.w	r3, r1, r3
    12a8:	6193      	str	r3, [r2, #24]
    12aa:	6882      	ldr	r2, [r0, #8]
    12ac:	7813      	ldrb	r3, [r2, #0]
    12ae:	2b03      	cmp	r3, #3
    12b0:	d802      	bhi.n	12b8 <_ZN7drivers3lcd6c1233239C12332$LT$$x27a$C$$x20S$C$$x20T$GT$.LCD5flush21h113857806729637309524v0.0E+0x368>
    12b2:	f85c 3023 	ldr.w	r3, [ip, r3, lsl #2]
    12b6:	e003      	b.n	12c0 <_ZN7drivers3lcd6c1233239C12332$LT$$x27a$C$$x20S$C$$x20T$GT$.LCD5flush21h113857806729637309524v0.0E+0x370>
    12b8:	f24c 0380 	movw	r3, #49280	; 0xc080
    12bc:	f2c2 0309 	movt	r3, #8201	; 0x2009
    12c0:	7852      	ldrb	r2, [r2, #1]
    12c2:	4091      	lsls	r1, r2
    12c4:	61d9      	str	r1, [r3, #28]
    12c6:	68c1      	ldr	r1, [r0, #12]
    12c8:	780a      	ldrb	r2, [r1, #0]
    12ca:	2a03      	cmp	r2, #3
    12cc:	d802      	bhi.n	12d4 <_ZN7drivers3lcd6c1233239C12332$LT$$x27a$C$$x20S$C$$x20T$GT$.LCD5flush21h113857806729637309524v0.0E+0x384>
    12ce:	f85c 2022 	ldr.w	r2, [ip, r2, lsl #2]
    12d2:	e003      	b.n	12dc <_ZN7drivers3lcd6c1233239C12332$LT$$x27a$C$$x20S$C$$x20T$GT$.LCD5flush21h113857806729637309524v0.0E+0x38c>
    12d4:	f24c 0280 	movw	r2, #49280	; 0xc080
    12d8:	f2c2 0209 	movt	r2, #8201	; 0x2009
    12dc:	7849      	ldrb	r1, [r1, #1]
    12de:	2301      	movs	r3, #1
    12e0:	fa03 f101 	lsl.w	r1, r3, r1
    12e4:	61d1      	str	r1, [r2, #28]
    12e6:	6801      	ldr	r1, [r0, #0]
    12e8:	684a      	ldr	r2, [r1, #4]
    12ea:	68d3      	ldr	r3, [r2, #12]
    12ec:	f013 0f02 	tst.w	r3, #2
    12f0:	d0fb      	beq.n	12ea <_ZN7drivers3lcd6c1233239C12332$LT$$x27a$C$$x20S$C$$x20T$GT$.LCD5flush21h113857806729637309524v0.0E+0x39a>
    12f2:	23b1      	movs	r3, #177	; 0xb1
    12f4:	6093      	str	r3, [r2, #8]
    12f6:	6849      	ldr	r1, [r1, #4]
    12f8:	68ca      	ldr	r2, [r1, #12]
    12fa:	f012 0f10 	tst.w	r2, #16
    12fe:	d1fb      	bne.n	12f8 <_ZN7drivers3lcd6c1233239C12332$LT$$x27a$C$$x20S$C$$x20T$GT$.LCD5flush21h113857806729637309524v0.0E+0x3a8>
    1300:	68c1      	ldr	r1, [r0, #12]
    1302:	780a      	ldrb	r2, [r1, #0]
    1304:	2a03      	cmp	r2, #3
    1306:	d802      	bhi.n	130e <_ZN7drivers3lcd6c1233239C12332$LT$$x27a$C$$x20S$C$$x20T$GT$.LCD5flush21h113857806729637309524v0.0E+0x3be>
    1308:	f85c 2022 	ldr.w	r2, [ip, r2, lsl #2]
    130c:	e003      	b.n	1316 <_ZN7drivers3lcd6c1233239C12332$LT$$x27a$C$$x20S$C$$x20T$GT$.LCD5flush21h113857806729637309524v0.0E+0x3c6>
    130e:	f24c 0280 	movw	r2, #49280	; 0xc080
    1312:	f2c2 0209 	movt	r2, #8201	; 0x2009
    1316:	7849      	ldrb	r1, [r1, #1]
    1318:	f04f 0e01 	mov.w	lr, #1
    131c:	fa0e f101 	lsl.w	r1, lr, r1
    1320:	6191      	str	r1, [r2, #24]
    1322:	6881      	ldr	r1, [r0, #8]
    1324:	780a      	ldrb	r2, [r1, #0]
    1326:	2a03      	cmp	r2, #3
    1328:	d802      	bhi.n	1330 <_ZN7drivers3lcd6c1233239C12332$LT$$x27a$C$$x20S$C$$x20T$GT$.LCD5flush21h113857806729637309524v0.0E+0x3e0>
    132a:	f85c 2022 	ldr.w	r2, [ip, r2, lsl #2]
    132e:	e003      	b.n	1338 <_ZN7drivers3lcd6c1233239C12332$LT$$x27a$C$$x20S$C$$x20T$GT$.LCD5flush21h113857806729637309524v0.0E+0x3e8>
    1330:	f24c 0280 	movw	r2, #49280	; 0xc080
    1334:	f2c2 0209 	movt	r2, #8201	; 0x2009
    1338:	7849      	ldrb	r1, [r1, #1]
    133a:	2380      	movs	r3, #128	; 0x80
    133c:	fa0e f101 	lsl.w	r1, lr, r1
    1340:	6191      	str	r1, [r2, #24]
    1342:	f24c 0180 	movw	r1, #49280	; 0xc080
    1346:	f2c2 0109 	movt	r1, #8201	; 0x2009
    134a:	6884      	ldr	r4, [r0, #8]
    134c:	18c2      	adds	r2, r0, r3
    134e:	460d      	mov	r5, r1
    1350:	7d12      	ldrb	r2, [r2, #20]
    1352:	7826      	ldrb	r6, [r4, #0]
    1354:	2e03      	cmp	r6, #3
    1356:	bf98      	it	ls
    1358:	f85c 5026 	ldrls.w	r5, [ip, r6, lsl #2]
    135c:	7864      	ldrb	r4, [r4, #1]
    135e:	fa0e f404 	lsl.w	r4, lr, r4
    1362:	61ac      	str	r4, [r5, #24]
    1364:	460d      	mov	r5, r1
    1366:	68c4      	ldr	r4, [r0, #12]
    1368:	7826      	ldrb	r6, [r4, #0]
    136a:	2e03      	cmp	r6, #3
    136c:	bf98      	it	ls
    136e:	f85c 5026 	ldrls.w	r5, [ip, r6, lsl #2]
    1372:	7864      	ldrb	r4, [r4, #1]
    1374:	fa0e f404 	lsl.w	r4, lr, r4
    1378:	61ec      	str	r4, [r5, #28]
    137a:	6804      	ldr	r4, [r0, #0]
    137c:	6865      	ldr	r5, [r4, #4]
    137e:	68ee      	ldr	r6, [r5, #12]
    1380:	f016 0f02 	tst.w	r6, #2
    1384:	d0fb      	beq.n	137e <_ZN7drivers3lcd6c1233239C12332$LT$$x27a$C$$x20S$C$$x20T$GT$.LCD5flush21h113857806729637309524v0.0E+0x42e>
    1386:	60aa      	str	r2, [r5, #8]
    1388:	6862      	ldr	r2, [r4, #4]
    138a:	68d4      	ldr	r4, [r2, #12]
    138c:	f014 0f10 	tst.w	r4, #16
    1390:	d1fb      	bne.n	138a <_ZN7drivers3lcd6c1233239C12332$LT$$x27a$C$$x20S$C$$x20T$GT$.LCD5flush21h113857806729637309524v0.0E+0x43a>
    1392:	68c2      	ldr	r2, [r0, #12]
    1394:	460c      	mov	r4, r1
    1396:	3301      	adds	r3, #1
    1398:	7815      	ldrb	r5, [r2, #0]
    139a:	2d03      	cmp	r5, #3
    139c:	bf98      	it	ls
    139e:	f85c 4025 	ldrls.w	r4, [ip, r5, lsl #2]
    13a2:	7852      	ldrb	r2, [r2, #1]
    13a4:	f5b3 7f80 	cmp.w	r3, #256	; 0x100
    13a8:	fa0e f202 	lsl.w	r2, lr, r2
    13ac:	61a2      	str	r2, [r4, #24]
    13ae:	d1cc      	bne.n	134a <_ZN7drivers3lcd6c1233239C12332$LT$$x27a$C$$x20S$C$$x20T$GT$.LCD5flush21h113857806729637309524v0.0E+0x3fa>
    13b0:	6881      	ldr	r1, [r0, #8]
    13b2:	780a      	ldrb	r2, [r1, #0]
    13b4:	2a03      	cmp	r2, #3
    13b6:	d802      	bhi.n	13be <_ZN7drivers3lcd6c1233239C12332$LT$$x27a$C$$x20S$C$$x20T$GT$.LCD5flush21h113857806729637309524v0.0E+0x46e>
    13b8:	f85c 2022 	ldr.w	r2, [ip, r2, lsl #2]
    13bc:	e003      	b.n	13c6 <_ZN7drivers3lcd6c1233239C12332$LT$$x27a$C$$x20S$C$$x20T$GT$.LCD5flush21h113857806729637309524v0.0E+0x476>
    13be:	f24c 0280 	movw	r2, #49280	; 0xc080
    13c2:	f2c2 0209 	movt	r2, #8201	; 0x2009
    13c6:	784b      	ldrb	r3, [r1, #1]
    13c8:	2101      	movs	r1, #1
    13ca:	fa01 f303 	lsl.w	r3, r1, r3
    13ce:	61d3      	str	r3, [r2, #28]
    13d0:	68c2      	ldr	r2, [r0, #12]
    13d2:	7813      	ldrb	r3, [r2, #0]
    13d4:	2b03      	cmp	r3, #3
    13d6:	d802      	bhi.n	13de <_ZN7drivers3lcd6c1233239C12332$LT$$x27a$C$$x20S$C$$x20T$GT$.LCD5flush21h113857806729637309524v0.0E+0x48e>
    13d8:	f85c 3023 	ldr.w	r3, [ip, r3, lsl #2]
    13dc:	e003      	b.n	13e6 <_ZN7drivers3lcd6c1233239C12332$LT$$x27a$C$$x20S$C$$x20T$GT$.LCD5flush21h113857806729637309524v0.0E+0x496>
    13de:	f24c 0380 	movw	r3, #49280	; 0xc080
    13e2:	f2c2 0309 	movt	r3, #8201	; 0x2009
    13e6:	7852      	ldrb	r2, [r2, #1]
    13e8:	4091      	lsls	r1, r2
    13ea:	61d9      	str	r1, [r3, #28]
    13ec:	6801      	ldr	r1, [r0, #0]
    13ee:	684a      	ldr	r2, [r1, #4]
    13f0:	68d3      	ldr	r3, [r2, #12]
    13f2:	f013 0f02 	tst.w	r3, #2
    13f6:	d0fb      	beq.n	13f0 <_ZN7drivers3lcd6c1233239C12332$LT$$x27a$C$$x20S$C$$x20T$GT$.LCD5flush21h113857806729637309524v0.0E+0x4a0>
    13f8:	2300      	movs	r3, #0
    13fa:	6093      	str	r3, [r2, #8]
    13fc:	6849      	ldr	r1, [r1, #4]
    13fe:	68ca      	ldr	r2, [r1, #12]
    1400:	f012 0f10 	tst.w	r2, #16
    1404:	d1fb      	bne.n	13fe <_ZN7drivers3lcd6c1233239C12332$LT$$x27a$C$$x20S$C$$x20T$GT$.LCD5flush21h113857806729637309524v0.0E+0x4ae>
    1406:	68c1      	ldr	r1, [r0, #12]
    1408:	780a      	ldrb	r2, [r1, #0]
    140a:	2a03      	cmp	r2, #3
    140c:	d802      	bhi.n	1414 <_ZN7drivers3lcd6c1233239C12332$LT$$x27a$C$$x20S$C$$x20T$GT$.LCD5flush21h113857806729637309524v0.0E+0x4c4>
    140e:	f85c 2022 	ldr.w	r2, [ip, r2, lsl #2]
    1412:	e003      	b.n	141c <_ZN7drivers3lcd6c1233239C12332$LT$$x27a$C$$x20S$C$$x20T$GT$.LCD5flush21h113857806729637309524v0.0E+0x4cc>
    1414:	f24c 0280 	movw	r2, #49280	; 0xc080
    1418:	f2c2 0209 	movt	r2, #8201	; 0x2009
    141c:	784b      	ldrb	r3, [r1, #1]
    141e:	2101      	movs	r1, #1
    1420:	fa01 f303 	lsl.w	r3, r1, r3
    1424:	6193      	str	r3, [r2, #24]
    1426:	6882      	ldr	r2, [r0, #8]
    1428:	7813      	ldrb	r3, [r2, #0]
    142a:	2b03      	cmp	r3, #3
    142c:	d802      	bhi.n	1434 <_ZN7drivers3lcd6c1233239C12332$LT$$x27a$C$$x20S$C$$x20T$GT$.LCD5flush21h113857806729637309524v0.0E+0x4e4>
    142e:	f85c 3023 	ldr.w	r3, [ip, r3, lsl #2]
    1432:	e003      	b.n	143c <_ZN7drivers3lcd6c1233239C12332$LT$$x27a$C$$x20S$C$$x20T$GT$.LCD5flush21h113857806729637309524v0.0E+0x4ec>
    1434:	f24c 0380 	movw	r3, #49280	; 0xc080
    1438:	f2c2 0309 	movt	r3, #8201	; 0x2009
    143c:	7852      	ldrb	r2, [r2, #1]
    143e:	4091      	lsls	r1, r2
    1440:	61d9      	str	r1, [r3, #28]
    1442:	68c1      	ldr	r1, [r0, #12]
    1444:	780a      	ldrb	r2, [r1, #0]
    1446:	2a03      	cmp	r2, #3
    1448:	d802      	bhi.n	1450 <_ZN7drivers3lcd6c1233239C12332$LT$$x27a$C$$x20S$C$$x20T$GT$.LCD5flush21h113857806729637309524v0.0E+0x500>
    144a:	f85c 2022 	ldr.w	r2, [ip, r2, lsl #2]
    144e:	e003      	b.n	1458 <_ZN7drivers3lcd6c1233239C12332$LT$$x27a$C$$x20S$C$$x20T$GT$.LCD5flush21h113857806729637309524v0.0E+0x508>
    1450:	f24c 0280 	movw	r2, #49280	; 0xc080
    1454:	f2c2 0209 	movt	r2, #8201	; 0x2009
    1458:	7849      	ldrb	r1, [r1, #1]
    145a:	2301      	movs	r3, #1
    145c:	fa03 f101 	lsl.w	r1, r3, r1
    1460:	61d1      	str	r1, [r2, #28]
    1462:	6801      	ldr	r1, [r0, #0]
    1464:	684a      	ldr	r2, [r1, #4]
    1466:	68d3      	ldr	r3, [r2, #12]
    1468:	f013 0f02 	tst.w	r3, #2
    146c:	d0fb      	beq.n	1466 <_ZN7drivers3lcd6c1233239C12332$LT$$x27a$C$$x20S$C$$x20T$GT$.LCD5flush21h113857806729637309524v0.0E+0x516>
    146e:	2310      	movs	r3, #16
    1470:	6093      	str	r3, [r2, #8]
    1472:	6849      	ldr	r1, [r1, #4]
    1474:	68ca      	ldr	r2, [r1, #12]
    1476:	f012 0f10 	tst.w	r2, #16
    147a:	d1fb      	bne.n	1474 <_ZN7drivers3lcd6c1233239C12332$LT$$x27a$C$$x20S$C$$x20T$GT$.LCD5flush21h113857806729637309524v0.0E+0x524>
    147c:	68c1      	ldr	r1, [r0, #12]
    147e:	780a      	ldrb	r2, [r1, #0]
    1480:	2a03      	cmp	r2, #3
    1482:	d802      	bhi.n	148a <_ZN7drivers3lcd6c1233239C12332$LT$$x27a$C$$x20S$C$$x20T$GT$.LCD5flush21h113857806729637309524v0.0E+0x53a>
    1484:	f85c 2022 	ldr.w	r2, [ip, r2, lsl #2]
    1488:	e003      	b.n	1492 <_ZN7drivers3lcd6c1233239C12332$LT$$x27a$C$$x20S$C$$x20T$GT$.LCD5flush21h113857806729637309524v0.0E+0x542>
    148a:	f24c 0280 	movw	r2, #49280	; 0xc080
    148e:	f2c2 0209 	movt	r2, #8201	; 0x2009
    1492:	784b      	ldrb	r3, [r1, #1]
    1494:	2101      	movs	r1, #1
    1496:	fa01 f303 	lsl.w	r3, r1, r3
    149a:	6193      	str	r3, [r2, #24]
    149c:	6882      	ldr	r2, [r0, #8]
    149e:	7813      	ldrb	r3, [r2, #0]
    14a0:	2b03      	cmp	r3, #3
    14a2:	d802      	bhi.n	14aa <_ZN7drivers3lcd6c1233239C12332$LT$$x27a$C$$x20S$C$$x20T$GT$.LCD5flush21h113857806729637309524v0.0E+0x55a>
    14a4:	f85c 3023 	ldr.w	r3, [ip, r3, lsl #2]
    14a8:	e003      	b.n	14b2 <_ZN7drivers3lcd6c1233239C12332$LT$$x27a$C$$x20S$C$$x20T$GT$.LCD5flush21h113857806729637309524v0.0E+0x562>
    14aa:	f24c 0380 	movw	r3, #49280	; 0xc080
    14ae:	f2c2 0309 	movt	r3, #8201	; 0x2009
    14b2:	7852      	ldrb	r2, [r2, #1]
    14b4:	4091      	lsls	r1, r2
    14b6:	61d9      	str	r1, [r3, #28]
    14b8:	68c1      	ldr	r1, [r0, #12]
    14ba:	780a      	ldrb	r2, [r1, #0]
    14bc:	2a03      	cmp	r2, #3
    14be:	d802      	bhi.n	14c6 <_ZN7drivers3lcd6c1233239C12332$LT$$x27a$C$$x20S$C$$x20T$GT$.LCD5flush21h113857806729637309524v0.0E+0x576>
    14c0:	f85c 2022 	ldr.w	r2, [ip, r2, lsl #2]
    14c4:	e003      	b.n	14ce <_ZN7drivers3lcd6c1233239C12332$LT$$x27a$C$$x20S$C$$x20T$GT$.LCD5flush21h113857806729637309524v0.0E+0x57e>
    14c6:	f24c 0280 	movw	r2, #49280	; 0xc080
    14ca:	f2c2 0209 	movt	r2, #8201	; 0x2009
    14ce:	7849      	ldrb	r1, [r1, #1]
    14d0:	2301      	movs	r3, #1
    14d2:	fa03 f101 	lsl.w	r1, r3, r1
    14d6:	61d1      	str	r1, [r2, #28]
    14d8:	6801      	ldr	r1, [r0, #0]
    14da:	684a      	ldr	r2, [r1, #4]
    14dc:	68d3      	ldr	r3, [r2, #12]
    14de:	f013 0f02 	tst.w	r3, #2
    14e2:	d0fb      	beq.n	14dc <_ZN7drivers3lcd6c1233239C12332$LT$$x27a$C$$x20S$C$$x20T$GT$.LCD5flush21h113857806729637309524v0.0E+0x58c>
    14e4:	23b2      	movs	r3, #178	; 0xb2
    14e6:	6093      	str	r3, [r2, #8]
    14e8:	6849      	ldr	r1, [r1, #4]
    14ea:	68ca      	ldr	r2, [r1, #12]
    14ec:	f012 0f10 	tst.w	r2, #16
    14f0:	d1fb      	bne.n	14ea <_ZN7drivers3lcd6c1233239C12332$LT$$x27a$C$$x20S$C$$x20T$GT$.LCD5flush21h113857806729637309524v0.0E+0x59a>
    14f2:	68c1      	ldr	r1, [r0, #12]
    14f4:	780a      	ldrb	r2, [r1, #0]
    14f6:	2a03      	cmp	r2, #3
    14f8:	d802      	bhi.n	1500 <_ZN7drivers3lcd6c1233239C12332$LT$$x27a$C$$x20S$C$$x20T$GT$.LCD5flush21h113857806729637309524v0.0E+0x5b0>
    14fa:	f85c 2022 	ldr.w	r2, [ip, r2, lsl #2]
    14fe:	e003      	b.n	1508 <_ZN7drivers3lcd6c1233239C12332$LT$$x27a$C$$x20S$C$$x20T$GT$.LCD5flush21h113857806729637309524v0.0E+0x5b8>
    1500:	f24c 0280 	movw	r2, #49280	; 0xc080
    1504:	f2c2 0209 	movt	r2, #8201	; 0x2009
    1508:	7849      	ldrb	r1, [r1, #1]
    150a:	f04f 0e01 	mov.w	lr, #1
    150e:	fa0e f101 	lsl.w	r1, lr, r1
    1512:	6191      	str	r1, [r2, #24]
    1514:	6881      	ldr	r1, [r0, #8]
    1516:	780a      	ldrb	r2, [r1, #0]
    1518:	2a03      	cmp	r2, #3
    151a:	d802      	bhi.n	1522 <_ZN7drivers3lcd6c1233239C12332$LT$$x27a$C$$x20S$C$$x20T$GT$.LCD5flush21h113857806729637309524v0.0E+0x5d2>
    151c:	f85c 2022 	ldr.w	r2, [ip, r2, lsl #2]
    1520:	e003      	b.n	152a <_ZN7drivers3lcd6c1233239C12332$LT$$x27a$C$$x20S$C$$x20T$GT$.LCD5flush21h113857806729637309524v0.0E+0x5da>
    1522:	f24c 0280 	movw	r2, #49280	; 0xc080
    1526:	f2c2 0209 	movt	r2, #8201	; 0x2009
    152a:	7849      	ldrb	r1, [r1, #1]
    152c:	f44f 7380 	mov.w	r3, #256	; 0x100
    1530:	fa0e f101 	lsl.w	r1, lr, r1
    1534:	6191      	str	r1, [r2, #24]
    1536:	f24c 0180 	movw	r1, #49280	; 0xc080
    153a:	f2c2 0109 	movt	r1, #8201	; 0x2009
    153e:	6884      	ldr	r4, [r0, #8]
    1540:	18c2      	adds	r2, r0, r3
    1542:	460d      	mov	r5, r1
    1544:	7d12      	ldrb	r2, [r2, #20]
    1546:	7826      	ldrb	r6, [r4, #0]
    1548:	2e03      	cmp	r6, #3
    154a:	bf98      	it	ls
    154c:	f85c 5026 	ldrls.w	r5, [ip, r6, lsl #2]
    1550:	7864      	ldrb	r4, [r4, #1]
    1552:	fa0e f404 	lsl.w	r4, lr, r4
    1556:	61ac      	str	r4, [r5, #24]
    1558:	460d      	mov	r5, r1
    155a:	68c4      	ldr	r4, [r0, #12]
    155c:	7826      	ldrb	r6, [r4, #0]
    155e:	2e03      	cmp	r6, #3
    1560:	bf98      	it	ls
    1562:	f85c 5026 	ldrls.w	r5, [ip, r6, lsl #2]
    1566:	7864      	ldrb	r4, [r4, #1]
    1568:	fa0e f404 	lsl.w	r4, lr, r4
    156c:	61ec      	str	r4, [r5, #28]
    156e:	6804      	ldr	r4, [r0, #0]
    1570:	6865      	ldr	r5, [r4, #4]
    1572:	68ee      	ldr	r6, [r5, #12]
    1574:	f016 0f02 	tst.w	r6, #2
    1578:	d0fb      	beq.n	1572 <_ZN7drivers3lcd6c1233239C12332$LT$$x27a$C$$x20S$C$$x20T$GT$.LCD5flush21h113857806729637309524v0.0E+0x622>
    157a:	60aa      	str	r2, [r5, #8]
    157c:	6862      	ldr	r2, [r4, #4]
    157e:	68d4      	ldr	r4, [r2, #12]
    1580:	f014 0f10 	tst.w	r4, #16
    1584:	d1fb      	bne.n	157e <_ZN7drivers3lcd6c1233239C12332$LT$$x27a$C$$x20S$C$$x20T$GT$.LCD5flush21h113857806729637309524v0.0E+0x62e>
    1586:	68c2      	ldr	r2, [r0, #12]
    1588:	460c      	mov	r4, r1
    158a:	3301      	adds	r3, #1
    158c:	7815      	ldrb	r5, [r2, #0]
    158e:	2d03      	cmp	r5, #3
    1590:	bf98      	it	ls
    1592:	f85c 4025 	ldrls.w	r4, [ip, r5, lsl #2]
    1596:	7852      	ldrb	r2, [r2, #1]
    1598:	f5b3 7fc0 	cmp.w	r3, #384	; 0x180
    159c:	fa0e f202 	lsl.w	r2, lr, r2
    15a0:	61a2      	str	r2, [r4, #24]
    15a2:	d1cc      	bne.n	153e <_ZN7drivers3lcd6c1233239C12332$LT$$x27a$C$$x20S$C$$x20T$GT$.LCD5flush21h113857806729637309524v0.0E+0x5ee>
    15a4:	6881      	ldr	r1, [r0, #8]
    15a6:	780a      	ldrb	r2, [r1, #0]
    15a8:	2a03      	cmp	r2, #3
    15aa:	d802      	bhi.n	15b2 <_ZN7drivers3lcd6c1233239C12332$LT$$x27a$C$$x20S$C$$x20T$GT$.LCD5flush21h113857806729637309524v0.0E+0x662>
    15ac:	f85c 2022 	ldr.w	r2, [ip, r2, lsl #2]
    15b0:	e003      	b.n	15ba <_ZN7drivers3lcd6c1233239C12332$LT$$x27a$C$$x20S$C$$x20T$GT$.LCD5flush21h113857806729637309524v0.0E+0x66a>
    15b2:	f24c 0280 	movw	r2, #49280	; 0xc080
    15b6:	f2c2 0209 	movt	r2, #8201	; 0x2009
    15ba:	784b      	ldrb	r3, [r1, #1]
    15bc:	2101      	movs	r1, #1
    15be:	fa01 f303 	lsl.w	r3, r1, r3
    15c2:	61d3      	str	r3, [r2, #28]
    15c4:	68c2      	ldr	r2, [r0, #12]
    15c6:	7813      	ldrb	r3, [r2, #0]
    15c8:	2b03      	cmp	r3, #3
    15ca:	d802      	bhi.n	15d2 <_ZN7drivers3lcd6c1233239C12332$LT$$x27a$C$$x20S$C$$x20T$GT$.LCD5flush21h113857806729637309524v0.0E+0x682>
    15cc:	f85c 3023 	ldr.w	r3, [ip, r3, lsl #2]
    15d0:	e003      	b.n	15da <_ZN7drivers3lcd6c1233239C12332$LT$$x27a$C$$x20S$C$$x20T$GT$.LCD5flush21h113857806729637309524v0.0E+0x68a>
    15d2:	f24c 0380 	movw	r3, #49280	; 0xc080
    15d6:	f2c2 0309 	movt	r3, #8201	; 0x2009
    15da:	7852      	ldrb	r2, [r2, #1]
    15dc:	4091      	lsls	r1, r2
    15de:	61d9      	str	r1, [r3, #28]
    15e0:	6801      	ldr	r1, [r0, #0]
    15e2:	684a      	ldr	r2, [r1, #4]
    15e4:	68d3      	ldr	r3, [r2, #12]
    15e6:	f013 0f02 	tst.w	r3, #2
    15ea:	d0fb      	beq.n	15e4 <_ZN7drivers3lcd6c1233239C12332$LT$$x27a$C$$x20S$C$$x20T$GT$.LCD5flush21h113857806729637309524v0.0E+0x694>
    15ec:	2300      	movs	r3, #0
    15ee:	6093      	str	r3, [r2, #8]
    15f0:	6849      	ldr	r1, [r1, #4]
    15f2:	68ca      	ldr	r2, [r1, #12]
    15f4:	f012 0f10 	tst.w	r2, #16
    15f8:	d1fb      	bne.n	15f2 <_ZN7drivers3lcd6c1233239C12332$LT$$x27a$C$$x20S$C$$x20T$GT$.LCD5flush21h113857806729637309524v0.0E+0x6a2>
    15fa:	68c1      	ldr	r1, [r0, #12]
    15fc:	780a      	ldrb	r2, [r1, #0]
    15fe:	2a03      	cmp	r2, #3
    1600:	d802      	bhi.n	1608 <_ZN7drivers3lcd6c1233239C12332$LT$$x27a$C$$x20S$C$$x20T$GT$.LCD5flush21h113857806729637309524v0.0E+0x6b8>
    1602:	f85c 2022 	ldr.w	r2, [ip, r2, lsl #2]
    1606:	e003      	b.n	1610 <_ZN7drivers3lcd6c1233239C12332$LT$$x27a$C$$x20S$C$$x20T$GT$.LCD5flush21h113857806729637309524v0.0E+0x6c0>
    1608:	f24c 0280 	movw	r2, #49280	; 0xc080
    160c:	f2c2 0209 	movt	r2, #8201	; 0x2009
    1610:	784b      	ldrb	r3, [r1, #1]
    1612:	2101      	movs	r1, #1
    1614:	fa01 f303 	lsl.w	r3, r1, r3
    1618:	6193      	str	r3, [r2, #24]
    161a:	6882      	ldr	r2, [r0, #8]
    161c:	7813      	ldrb	r3, [r2, #0]
    161e:	2b03      	cmp	r3, #3
    1620:	d802      	bhi.n	1628 <_ZN7drivers3lcd6c1233239C12332$LT$$x27a$C$$x20S$C$$x20T$GT$.LCD5flush21h113857806729637309524v0.0E+0x6d8>
    1622:	f85c 3023 	ldr.w	r3, [ip, r3, lsl #2]
    1626:	e003      	b.n	1630 <_ZN7drivers3lcd6c1233239C12332$LT$$x27a$C$$x20S$C$$x20T$GT$.LCD5flush21h113857806729637309524v0.0E+0x6e0>
    1628:	f24c 0380 	movw	r3, #49280	; 0xc080
    162c:	f2c2 0309 	movt	r3, #8201	; 0x2009
    1630:	7852      	ldrb	r2, [r2, #1]
    1632:	4091      	lsls	r1, r2
    1634:	61d9      	str	r1, [r3, #28]
    1636:	68c1      	ldr	r1, [r0, #12]
    1638:	780a      	ldrb	r2, [r1, #0]
    163a:	2a03      	cmp	r2, #3
    163c:	d802      	bhi.n	1644 <_ZN7drivers3lcd6c1233239C12332$LT$$x27a$C$$x20S$C$$x20T$GT$.LCD5flush21h113857806729637309524v0.0E+0x6f4>
    163e:	f85c 2022 	ldr.w	r2, [ip, r2, lsl #2]
    1642:	e003      	b.n	164c <_ZN7drivers3lcd6c1233239C12332$LT$$x27a$C$$x20S$C$$x20T$GT$.LCD5flush21h113857806729637309524v0.0E+0x6fc>
    1644:	f24c 0280 	movw	r2, #49280	; 0xc080
    1648:	f2c2 0209 	movt	r2, #8201	; 0x2009
    164c:	7849      	ldrb	r1, [r1, #1]
    164e:	2301      	movs	r3, #1
    1650:	fa03 f101 	lsl.w	r1, r3, r1
    1654:	61d1      	str	r1, [r2, #28]
    1656:	6801      	ldr	r1, [r0, #0]
    1658:	684a      	ldr	r2, [r1, #4]
    165a:	68d3      	ldr	r3, [r2, #12]
    165c:	f013 0f02 	tst.w	r3, #2
    1660:	d0fb      	beq.n	165a <_ZN7drivers3lcd6c1233239C12332$LT$$x27a$C$$x20S$C$$x20T$GT$.LCD5flush21h113857806729637309524v0.0E+0x70a>
    1662:	2310      	movs	r3, #16
    1664:	6093      	str	r3, [r2, #8]
    1666:	6849      	ldr	r1, [r1, #4]
    1668:	68ca      	ldr	r2, [r1, #12]
    166a:	f012 0f10 	tst.w	r2, #16
    166e:	d1fb      	bne.n	1668 <_ZN7drivers3lcd6c1233239C12332$LT$$x27a$C$$x20S$C$$x20T$GT$.LCD5flush21h113857806729637309524v0.0E+0x718>
    1670:	68c1      	ldr	r1, [r0, #12]
    1672:	780a      	ldrb	r2, [r1, #0]
    1674:	2a03      	cmp	r2, #3
    1676:	d802      	bhi.n	167e <_ZN7drivers3lcd6c1233239C12332$LT$$x27a$C$$x20S$C$$x20T$GT$.LCD5flush21h113857806729637309524v0.0E+0x72e>
    1678:	f85c 2022 	ldr.w	r2, [ip, r2, lsl #2]
    167c:	e003      	b.n	1686 <_ZN7drivers3lcd6c1233239C12332$LT$$x27a$C$$x20S$C$$x20T$GT$.LCD5flush21h113857806729637309524v0.0E+0x736>
    167e:	f24c 0280 	movw	r2, #49280	; 0xc080
    1682:	f2c2 0209 	movt	r2, #8201	; 0x2009
    1686:	784b      	ldrb	r3, [r1, #1]
    1688:	2101      	movs	r1, #1
    168a:	fa01 f303 	lsl.w	r3, r1, r3
    168e:	6193      	str	r3, [r2, #24]
    1690:	6882      	ldr	r2, [r0, #8]
    1692:	7813      	ldrb	r3, [r2, #0]
    1694:	2b03      	cmp	r3, #3
    1696:	d802      	bhi.n	169e <_ZN7drivers3lcd6c1233239C12332$LT$$x27a$C$$x20S$C$$x20T$GT$.LCD5flush21h113857806729637309524v0.0E+0x74e>
    1698:	f85c 3023 	ldr.w	r3, [ip, r3, lsl #2]
    169c:	e003      	b.n	16a6 <_ZN7drivers3lcd6c1233239C12332$LT$$x27a$C$$x20S$C$$x20T$GT$.LCD5flush21h113857806729637309524v0.0E+0x756>
    169e:	f24c 0380 	movw	r3, #49280	; 0xc080
    16a2:	f2c2 0309 	movt	r3, #8201	; 0x2009
    16a6:	7852      	ldrb	r2, [r2, #1]
    16a8:	4091      	lsls	r1, r2
    16aa:	61d9      	str	r1, [r3, #28]
    16ac:	68c1      	ldr	r1, [r0, #12]
    16ae:	780a      	ldrb	r2, [r1, #0]
    16b0:	2a03      	cmp	r2, #3
    16b2:	d802      	bhi.n	16ba <_ZN7drivers3lcd6c1233239C12332$LT$$x27a$C$$x20S$C$$x20T$GT$.LCD5flush21h113857806729637309524v0.0E+0x76a>
    16b4:	f85c 2022 	ldr.w	r2, [ip, r2, lsl #2]
    16b8:	e003      	b.n	16c2 <_ZN7drivers3lcd6c1233239C12332$LT$$x27a$C$$x20S$C$$x20T$GT$.LCD5flush21h113857806729637309524v0.0E+0x772>
    16ba:	f24c 0280 	movw	r2, #49280	; 0xc080
    16be:	f2c2 0209 	movt	r2, #8201	; 0x2009
    16c2:	7849      	ldrb	r1, [r1, #1]
    16c4:	2301      	movs	r3, #1
    16c6:	fa03 f101 	lsl.w	r1, r3, r1
    16ca:	61d1      	str	r1, [r2, #28]
    16cc:	6801      	ldr	r1, [r0, #0]
    16ce:	684a      	ldr	r2, [r1, #4]
    16d0:	68d3      	ldr	r3, [r2, #12]
    16d2:	f013 0f02 	tst.w	r3, #2
    16d6:	d0fb      	beq.n	16d0 <_ZN7drivers3lcd6c1233239C12332$LT$$x27a$C$$x20S$C$$x20T$GT$.LCD5flush21h113857806729637309524v0.0E+0x780>
    16d8:	23b3      	movs	r3, #179	; 0xb3
    16da:	6093      	str	r3, [r2, #8]
    16dc:	6849      	ldr	r1, [r1, #4]
    16de:	68ca      	ldr	r2, [r1, #12]
    16e0:	f012 0f10 	tst.w	r2, #16
    16e4:	d1fb      	bne.n	16de <_ZN7drivers3lcd6c1233239C12332$LT$$x27a$C$$x20S$C$$x20T$GT$.LCD5flush21h113857806729637309524v0.0E+0x78e>
    16e6:	68c1      	ldr	r1, [r0, #12]
    16e8:	780a      	ldrb	r2, [r1, #0]
    16ea:	2a03      	cmp	r2, #3
    16ec:	d802      	bhi.n	16f4 <_ZN7drivers3lcd6c1233239C12332$LT$$x27a$C$$x20S$C$$x20T$GT$.LCD5flush21h113857806729637309524v0.0E+0x7a4>
    16ee:	f85c 2022 	ldr.w	r2, [ip, r2, lsl #2]
    16f2:	e003      	b.n	16fc <_ZN7drivers3lcd6c1233239C12332$LT$$x27a$C$$x20S$C$$x20T$GT$.LCD5flush21h113857806729637309524v0.0E+0x7ac>
    16f4:	f24c 0280 	movw	r2, #49280	; 0xc080
    16f8:	f2c2 0209 	movt	r2, #8201	; 0x2009
    16fc:	7849      	ldrb	r1, [r1, #1]
    16fe:	f04f 0e01 	mov.w	lr, #1
    1702:	fa0e f101 	lsl.w	r1, lr, r1
    1706:	6191      	str	r1, [r2, #24]
    1708:	6881      	ldr	r1, [r0, #8]
    170a:	780a      	ldrb	r2, [r1, #0]
    170c:	2a03      	cmp	r2, #3
    170e:	d802      	bhi.n	1716 <_ZN7drivers3lcd6c1233239C12332$LT$$x27a$C$$x20S$C$$x20T$GT$.LCD5flush21h113857806729637309524v0.0E+0x7c6>
    1710:	f85c 2022 	ldr.w	r2, [ip, r2, lsl #2]
    1714:	e003      	b.n	171e <_ZN7drivers3lcd6c1233239C12332$LT$$x27a$C$$x20S$C$$x20T$GT$.LCD5flush21h113857806729637309524v0.0E+0x7ce>
    1716:	f24c 0280 	movw	r2, #49280	; 0xc080
    171a:	f2c2 0209 	movt	r2, #8201	; 0x2009
    171e:	7849      	ldrb	r1, [r1, #1]
    1720:	f44f 73c0 	mov.w	r3, #384	; 0x180
    1724:	fa0e f101 	lsl.w	r1, lr, r1
    1728:	6191      	str	r1, [r2, #24]
    172a:	f24c 0180 	movw	r1, #49280	; 0xc080
    172e:	f2c2 0109 	movt	r1, #8201	; 0x2009
    1732:	e00f      	b.n	1754 <_ZN7drivers3lcd6c1233239C12332$LT$$x27a$C$$x20S$C$$x20T$GT$.LCD5flush21h113857806729637309524v0.0E+0x804>
    1734:	68c2      	ldr	r2, [r0, #12]
    1736:	460c      	mov	r4, r1
    1738:	3301      	adds	r3, #1
    173a:	7815      	ldrb	r5, [r2, #0]
    173c:	2d03      	cmp	r5, #3
    173e:	bf98      	it	ls
    1740:	f85c 4025 	ldrls.w	r4, [ip, r5, lsl #2]
    1744:	7852      	ldrb	r2, [r2, #1]
    1746:	f5b3 7f00 	cmp.w	r3, #512	; 0x200
    174a:	fa0e f202 	lsl.w	r2, lr, r2
    174e:	61a2      	str	r2, [r4, #24]
    1750:	bf08      	it	eq
    1752:	bd70      	popeq	{r4, r5, r6, pc}
    1754:	6884      	ldr	r4, [r0, #8]
    1756:	18c2      	adds	r2, r0, r3
    1758:	460d      	mov	r5, r1
    175a:	7d12      	ldrb	r2, [r2, #20]
    175c:	7826      	ldrb	r6, [r4, #0]
    175e:	2e03      	cmp	r6, #3
    1760:	bf98      	it	ls
    1762:	f85c 5026 	ldrls.w	r5, [ip, r6, lsl #2]
    1766:	7864      	ldrb	r4, [r4, #1]
    1768:	fa0e f404 	lsl.w	r4, lr, r4
    176c:	61ac      	str	r4, [r5, #24]
    176e:	460d      	mov	r5, r1
    1770:	68c4      	ldr	r4, [r0, #12]
    1772:	7826      	ldrb	r6, [r4, #0]
    1774:	2e03      	cmp	r6, #3
    1776:	bf98      	it	ls
    1778:	f85c 5026 	ldrls.w	r5, [ip, r6, lsl #2]
    177c:	7864      	ldrb	r4, [r4, #1]
    177e:	fa0e f404 	lsl.w	r4, lr, r4
    1782:	61ec      	str	r4, [r5, #28]
    1784:	6804      	ldr	r4, [r0, #0]
    1786:	6865      	ldr	r5, [r4, #4]
    1788:	68ee      	ldr	r6, [r5, #12]
    178a:	f016 0f02 	tst.w	r6, #2
    178e:	d0fb      	beq.n	1788 <_ZN7drivers3lcd6c1233239C12332$LT$$x27a$C$$x20S$C$$x20T$GT$.LCD5flush21h113857806729637309524v0.0E+0x838>
    1790:	60aa      	str	r2, [r5, #8]
    1792:	6862      	ldr	r2, [r4, #4]
    1794:	68d4      	ldr	r4, [r2, #12]
    1796:	f014 0f10 	tst.w	r4, #16
    179a:	d1fb      	bne.n	1794 <_ZN7drivers3lcd6c1233239C12332$LT$$x27a$C$$x20S$C$$x20T$GT$.LCD5flush21h113857806729637309524v0.0E+0x844>
    179c:	e7ca      	b.n	1734 <_ZN7drivers3lcd6c1233239C12332$LT$$x27a$C$$x20S$C$$x20T$GT$.LCD5flush21h113857806729637309524v0.0E+0x7e4>
	...

000017a0 <_ZN7drivers3lcd6c1233242C12332$LT$$x27a$C$$x20S$C$$x20T$GT$.CharIO4putc20h10729067999520862174v0.0E>:
    17a0:	b430      	push	{r4, r5}
    17a2:	ee1d 4f70 	mrc	15, 0, r4, cr13, cr0, {3}
    17a6:	466d      	mov	r5, sp
    17a8:	e594      	b.n	12d4 <_ZN7drivers3lcd6c1233239C12332$LT$$x27a$C$$x20S$C$$x20T$GT$.LCD5flush21h113857806729637309524v0.0E+0x384>
    17aa:	4004      	ands	r4, r0
    17ac:	42ac      	cmp	r4, r5
    17ae:	d308      	bcc.n	17c2 <_ZN7drivers3lcd6c1233242C12332$LT$$x27a$C$$x20S$C$$x20T$GT$.CharIO4putc20h10729067999520862174v0.0E+0x22>
    17b0:	24a0      	movs	r4, #160	; 0xa0
    17b2:	2500      	movs	r5, #0
    17b4:	b500      	push	{lr}
    17b6:	f7ff fb75 	bl	ea4 <__morestack>
    17ba:	f85d eb04 	ldr.w	lr, [sp], #4
    17be:	bc30      	pop	{r4, r5}
    17c0:	4770      	bx	lr
    17c2:	bc30      	pop	{r4, r5}
    17c4:	e92d 4ff0 	stmdb	sp!, {r4, r5, r6, r7, r8, r9, sl, fp, lr}
    17c8:	b09f      	sub	sp, #124	; 0x7c
    17ca:	290a      	cmp	r1, #10
    17cc:	d11a      	bne.n	1804 <_ZN7drivers3lcd6c1233242C12332$LT$$x27a$C$$x20S$C$$x20T$GT$.CharIO4putc20h10729067999520862174v0.0E+0x64>
    17ce:	2700      	movs	r7, #0
    17d0:	f8c0 721c 	str.w	r7, [r0, #540]	; 0x21c
    17d4:	f8d0 3218 	ldr.w	r3, [r0, #536]	; 0x218
    17d8:	2b02      	cmp	r3, #2
    17da:	f240 8111 	bls.w	1a00 <_ZN7drivers3lcd6c1233242C12332$LT$$x27a$C$$x20S$C$$x20T$GT$.CharIO4putc20h10729067999520862174v0.0E+0x260>
    17de:	f8d0 1214 	ldr.w	r1, [r0, #532]	; 0x214
    17e2:	f8d0 2220 	ldr.w	r2, [r0, #544]	; 0x220
    17e6:	788b      	ldrb	r3, [r1, #2]
    17e8:	441a      	add	r2, r3
    17ea:	f8c0 2220 	str.w	r2, [r0, #544]	; 0x220
    17ee:	7889      	ldrb	r1, [r1, #2]
    17f0:	f1c1 0120 	rsb	r1, r1, #32
    17f4:	428a      	cmp	r2, r1
    17f6:	bf38      	it	cc
    17f8:	4617      	movcc	r7, r2
    17fa:	f8c0 7220 	str.w	r7, [r0, #544]	; 0x220
    17fe:	b01f      	add	sp, #124	; 0x7c
    1800:	e8bd 8ff0 	ldmia.w	sp!, {r4, r5, r6, r7, r8, r9, sl, fp, pc}
    1804:	b2cb      	uxtb	r3, r1
    1806:	2200      	movs	r2, #0
    1808:	2b1f      	cmp	r3, #31
    180a:	bf34      	ite	cc
    180c:	2201      	movcc	r2, #1
    180e:	09da      	lsrcs	r2, r3, #7
    1810:	2a00      	cmp	r2, #0
    1812:	f040 80de 	bne.w	19d2 <_ZN7drivers3lcd6c1233242C12332$LT$$x27a$C$$x20S$C$$x20T$GT$.CharIO4putc20h10729067999520862174v0.0E+0x232>
    1816:	f8d0 3218 	ldr.w	r3, [r0, #536]	; 0x218
    181a:	2b00      	cmp	r3, #0
    181c:	f000 80f2 	beq.w	1a04 <_ZN7drivers3lcd6c1233242C12332$LT$$x27a$C$$x20S$C$$x20T$GT$.CharIO4putc20h10729067999520862174v0.0E+0x264>
    1820:	2b02      	cmp	r3, #2
    1822:	f0c0 80f5 	bcc.w	1a10 <_ZN7drivers3lcd6c1233242C12332$LT$$x27a$C$$x20S$C$$x20T$GT$.CharIO4putc20h10729067999520862174v0.0E+0x270>
    1826:	2b03      	cmp	r3, #3
    1828:	f0c0 80f7 	bcc.w	1a1a <_ZN7drivers3lcd6c1233242C12332$LT$$x27a$C$$x20S$C$$x20T$GT$.CharIO4putc20h10729067999520862174v0.0E+0x27a>
    182c:	2b04      	cmp	r3, #4
    182e:	f0c0 80f9 	bcc.w	1a24 <_ZN7drivers3lcd6c1233242C12332$LT$$x27a$C$$x20S$C$$x20T$GT$.CharIO4putc20h10729067999520862174v0.0E+0x284>
    1832:	f8d0 7214 	ldr.w	r7, [r0, #532]	; 0x214
    1836:	f8d0 521c 	ldr.w	r5, [r0, #540]	; 0x21c
    183a:	f8d0 6220 	ldr.w	r6, [r0, #544]	; 0x220
    183e:	78ba      	ldrb	r2, [r7, #2]
    1840:	f897 e001 	ldrb.w	lr, [r7, #1]
    1844:	783b      	ldrb	r3, [r7, #0]
    1846:	f897 b003 	ldrb.w	fp, [r7, #3]
    184a:	462f      	mov	r7, r5
    184c:	9604      	str	r6, [sp, #16]
    184e:	9206      	str	r2, [sp, #24]
    1850:	eb05 020e 	add.w	r2, r5, lr
    1854:	2a80      	cmp	r2, #128	; 0x80
    1856:	d908      	bls.n	186a <_ZN7drivers3lcd6c1233242C12332$LT$$x27a$C$$x20S$C$$x20T$GT$.CharIO4putc20h10729067999520862174v0.0E+0xca>
    1858:	9a04      	ldr	r2, [sp, #16]
    185a:	9f06      	ldr	r7, [sp, #24]
    185c:	19d6      	adds	r6, r2, r7
    185e:	f1c7 0220 	rsb	r2, r7, #32
    1862:	2700      	movs	r7, #0
    1864:	4296      	cmp	r6, r2
    1866:	bf28      	it	cs
    1868:	463e      	movcs	r6, r7
    186a:	9701      	str	r7, [sp, #4]
    186c:	9602      	str	r6, [sp, #8]
    186e:	2b00      	cmp	r3, #0
    1870:	f000 80dd 	beq.w	1a2e <_ZN7drivers3lcd6c1233242C12332$LT$$x27a$C$$x20S$C$$x20T$GT$.CharIO4putc20h10729067999520862174v0.0E+0x28e>
    1874:	f500 7205 	add.w	r2, r0, #532	; 0x214
    1878:	31e0      	adds	r1, #224	; 0xe0
    187a:	9005      	str	r0, [sp, #20]
    187c:	4677      	mov	r7, lr
    187e:	f8d2 a000 	ldr.w	sl, [r2]
    1882:	b2c9      	uxtb	r1, r1
    1884:	4359      	muls	r1, r3
    1886:	1d0e      	adds	r6, r1, #4
    1888:	4629      	mov	r1, r5
    188a:	f81a 0006 	ldrb.w	r0, [sl, r6]
    188e:	9000      	str	r0, [sp, #0]
    1890:	9806      	ldr	r0, [sp, #24]
    1892:	2800      	cmp	r0, #0
    1894:	f000 8094 	beq.w	19c0 <_ZN7drivers3lcd6c1233242C12332$LT$$x27a$C$$x20S$C$$x20T$GT$.CharIO4putc20h10729067999520862174v0.0E+0x220>
    1898:	2000      	movs	r0, #0
    189a:	9007      	str	r0, [sp, #28]
    189c:	4630      	mov	r0, r6
    189e:	2f00      	cmp	r7, #0
    18a0:	f000 8085 	beq.w	19ae <_ZN7drivers3lcd6c1233242C12332$LT$$x27a$C$$x20S$C$$x20T$GT$.CharIO4putc20h10729067999520862174v0.0E+0x20e>
    18a4:	4686      	mov	lr, r0
    18a6:	9804      	ldr	r0, [sp, #16]
    18a8:	9d07      	ldr	r5, [sp, #28]
    18aa:	eb05 0900 	add.w	r9, r5, r0
    18ae:	ea4f 70e9 	mov.w	r0, r9, asr #31
    18b2:	eb09 7050 	add.w	r0, r9, r0, lsr #29
    18b6:	10c2      	asrs	r2, r0, #3
    18b8:	f000 00f8 	and.w	r0, r0, #248	; 0xf8
    18bc:	eb01 16c2 	add.w	r6, r1, r2, lsl #7
    18c0:	9203      	str	r2, [sp, #12]
    18c2:	9a05      	ldr	r2, [sp, #20]
    18c4:	eba9 0000 	sub.w	r0, r9, r0
    18c8:	960b      	str	r6, [sp, #44]	; 0x2c
    18ca:	b2c0      	uxtb	r0, r0
    18cc:	4432      	add	r2, r6
    18ce:	2601      	movs	r6, #1
    18d0:	fa06 f000 	lsl.w	r0, r6, r0
    18d4:	920a      	str	r2, [sp, #40]	; 0x28
    18d6:	f005 02f8 	and.w	r2, r5, #248	; 0xf8
    18da:	9009      	str	r0, [sp, #36]	; 0x24
    18dc:	43c0      	mvns	r0, r0
    18de:	9008      	str	r0, [sp, #32]
    18e0:	f005 0007 	and.w	r0, r5, #7
    18e4:	2500      	movs	r5, #0
    18e6:	fa06 fc00 	lsl.w	ip, r6, r0
    18ea:	4670      	mov	r0, lr
    18ec:	eb06 0ed2 	add.w	lr, r6, r2, lsr #3
    18f0:	fb05 e20b 	mla	r2, r5, fp, lr
    18f4:	b2d2      	uxtb	r2, r2
    18f6:	429a      	cmp	r2, r3
    18f8:	d26e      	bcs.n	19d8 <_ZN7drivers3lcd6c1233242C12332$LT$$x27a$C$$x20S$C$$x20T$GT$.CharIO4putc20h10729067999520862174v0.0E+0x238>
    18fa:	4402      	add	r2, r0
    18fc:	eb01 0805 	add.w	r8, r1, r5
    1900:	f81a 2002 	ldrb.w	r2, [sl, r2]
    1904:	ea02 020c 	and.w	r2, r2, ip
    1908:	f012 0fff 	tst.w	r2, #255	; 0xff
    190c:	d025      	beq.n	195a <_ZN7drivers3lcd6c1233242C12332$LT$$x27a$C$$x20S$C$$x20T$GT$.CharIO4putc20h10729067999520862174v0.0E+0x1ba>
    190e:	f1b9 0f1f 	cmp.w	r9, #31
    1912:	f04f 0200 	mov.w	r2, #0
    1916:	f04f 0600 	mov.w	r6, #0
    191a:	bfc8      	it	gt
    191c:	2201      	movgt	r2, #1
    191e:	f1b8 0f7f 	cmp.w	r8, #127	; 0x7f
    1922:	bfc8      	it	gt
    1924:	2601      	movgt	r6, #1
    1926:	4332      	orrs	r2, r6
    1928:	bf08      	it	eq
    192a:	ea4f 72d8 	moveq.w	r2, r8, lsr #31
    192e:	2a00      	cmp	r2, #0
    1930:	d139      	bne.n	19a6 <_ZN7drivers3lcd6c1233242C12332$LT$$x27a$C$$x20S$C$$x20T$GT$.CharIO4putc20h10729067999520862174v0.0E+0x206>
    1932:	f1b9 3fff 	cmp.w	r9, #4294967295	; 0xffffffff
    1936:	dd36      	ble.n	19a6 <_ZN7drivers3lcd6c1233242C12332$LT$$x27a$C$$x20S$C$$x20T$GT$.CharIO4putc20h10729067999520862174v0.0E+0x206>
    1938:	9a0b      	ldr	r2, [sp, #44]	; 0x2c
    193a:	4688      	mov	r8, r1
    193c:	4659      	mov	r1, fp
    193e:	2600      	movs	r6, #0
    1940:	442a      	add	r2, r5
    1942:	ebb6 2f52 	cmp.w	r6, r2, lsr #9
    1946:	d14b      	bne.n	19e0 <_ZN7drivers3lcd6c1233242C12332$LT$$x27a$C$$x20S$C$$x20T$GT$.CharIO4putc20h10729067999520862174v0.0E+0x240>
    1948:	9a0a      	ldr	r2, [sp, #40]	; 0x28
    194a:	9c09      	ldr	r4, [sp, #36]	; 0x24
    194c:	468b      	mov	fp, r1
    194e:	4641      	mov	r1, r8
    1950:	442a      	add	r2, r5
    1952:	7d16      	ldrb	r6, [r2, #20]
    1954:	4326      	orrs	r6, r4
    1956:	7516      	strb	r6, [r2, #20]
    1958:	e025      	b.n	19a6 <_ZN7drivers3lcd6c1233242C12332$LT$$x27a$C$$x20S$C$$x20T$GT$.CharIO4putc20h10729067999520862174v0.0E+0x206>
    195a:	f1b9 0f1f 	cmp.w	r9, #31
    195e:	f04f 0200 	mov.w	r2, #0
    1962:	4654      	mov	r4, sl
    1964:	f04f 0a00 	mov.w	sl, #0
    1968:	bfc8      	it	gt
    196a:	2201      	movgt	r2, #1
    196c:	f1b8 0f7f 	cmp.w	r8, #127	; 0x7f
    1970:	bfc8      	it	gt
    1972:	f04f 0a01 	movgt.w	sl, #1
    1976:	ea52 020a 	orrs.w	r2, r2, sl
    197a:	46a2      	mov	sl, r4
    197c:	bf08      	it	eq
    197e:	ea4f 72d8 	moveq.w	r2, r8, lsr #31
    1982:	b982      	cbnz	r2, 19a6 <_ZN7drivers3lcd6c1233242C12332$LT$$x27a$C$$x20S$C$$x20T$GT$.CharIO4putc20h10729067999520862174v0.0E+0x206>
    1984:	f1b9 3fff 	cmp.w	r9, #4294967295	; 0xffffffff
    1988:	dd0d      	ble.n	19a6 <_ZN7drivers3lcd6c1233242C12332$LT$$x27a$C$$x20S$C$$x20T$GT$.CharIO4putc20h10729067999520862174v0.0E+0x206>
    198a:	9a0b      	ldr	r2, [sp, #44]	; 0x2c
    198c:	4604      	mov	r4, r0
    198e:	2600      	movs	r6, #0
    1990:	442a      	add	r2, r5
    1992:	ebb6 2f52 	cmp.w	r6, r2, lsr #9
    1996:	d129      	bne.n	19ec <_ZN7drivers3lcd6c1233242C12332$LT$$x27a$C$$x20S$C$$x20T$GT$.CharIO4putc20h10729067999520862174v0.0E+0x24c>
    1998:	9a0a      	ldr	r2, [sp, #40]	; 0x28
    199a:	9808      	ldr	r0, [sp, #32]
    199c:	442a      	add	r2, r5
    199e:	7d16      	ldrb	r6, [r2, #20]
    19a0:	4006      	ands	r6, r0
    19a2:	4620      	mov	r0, r4
    19a4:	7516      	strb	r6, [r2, #20]
    19a6:	3501      	adds	r5, #1
    19a8:	b2ea      	uxtb	r2, r5
    19aa:	42ba      	cmp	r2, r7
    19ac:	d3a0      	bcc.n	18f0 <_ZN7drivers3lcd6c1233242C12332$LT$$x27a$C$$x20S$C$$x20T$GT$.CharIO4putc20h10729067999520862174v0.0E+0x150>
    19ae:	4606      	mov	r6, r0
    19b0:	9807      	ldr	r0, [sp, #28]
    19b2:	9a06      	ldr	r2, [sp, #24]
    19b4:	3001      	adds	r0, #1
    19b6:	9007      	str	r0, [sp, #28]
    19b8:	b2c0      	uxtb	r0, r0
    19ba:	4290      	cmp	r0, r2
    19bc:	f4ff af6e 	bcc.w	189c <_ZN7drivers3lcd6c1233242C12332$LT$$x27a$C$$x20S$C$$x20T$GT$.CharIO4putc20h10729067999520862174v0.0E+0xfc>
    19c0:	9801      	ldr	r0, [sp, #4]
    19c2:	9900      	ldr	r1, [sp, #0]
    19c4:	4408      	add	r0, r1
    19c6:	9905      	ldr	r1, [sp, #20]
    19c8:	f8c1 021c 	str.w	r0, [r1, #540]	; 0x21c
    19cc:	9802      	ldr	r0, [sp, #8]
    19ce:	f8c1 0220 	str.w	r0, [r1, #544]	; 0x220
    19d2:	b01f      	add	sp, #124	; 0x7c
    19d4:	e8bd 8ff0 	ldmia.w	sp!, {r4, r5, r6, r7, r8, r9, sl, fp, pc}
    19d8:	a80e      	add	r0, sp, #56	; 0x38
    19da:	2101      	movs	r1, #1
    19dc:	f000 f84e 	bl	1a7c <_ZN7failure17fail_bounds_check20h15b60dbe339b6e592Xv11v0.11.0.preE>
    19e0:	9803      	ldr	r0, [sp, #12]
    19e2:	eb08 10c0 	add.w	r0, r8, r0, lsl #7
    19e6:	1942      	adds	r2, r0, r5
    19e8:	a81a      	add	r0, sp, #104	; 0x68
    19ea:	e004      	b.n	19f6 <_ZN7drivers3lcd6c1233242C12332$LT$$x27a$C$$x20S$C$$x20T$GT$.CharIO4putc20h10729067999520862174v0.0E+0x256>
    19ec:	9803      	ldr	r0, [sp, #12]
    19ee:	eb01 10c0 	add.w	r0, r1, r0, lsl #7
    19f2:	1942      	adds	r2, r0, r5
    19f4:	a81c      	add	r0, sp, #112	; 0x70
    19f6:	2101      	movs	r1, #1
    19f8:	f44f 7300 	mov.w	r3, #512	; 0x200
    19fc:	f000 f83e 	bl	1a7c <_ZN7failure17fail_bounds_check20h15b60dbe339b6e592Xv11v0.11.0.preE>
    1a00:	a80c      	add	r0, sp, #48	; 0x30
    1a02:	e00b      	b.n	1a1c <_ZN7drivers3lcd6c1233242C12332$LT$$x27a$C$$x20S$C$$x20T$GT$.CharIO4putc20h10729067999520862174v0.0E+0x27c>
    1a04:	a818      	add	r0, sp, #96	; 0x60
    1a06:	2101      	movs	r1, #1
    1a08:	2200      	movs	r2, #0
    1a0a:	2300      	movs	r3, #0
    1a0c:	f000 f836 	bl	1a7c <_ZN7failure17fail_bounds_check20h15b60dbe339b6e592Xv11v0.11.0.preE>
    1a10:	a816      	add	r0, sp, #88	; 0x58
    1a12:	2101      	movs	r1, #1
    1a14:	2201      	movs	r2, #1
    1a16:	f000 f831 	bl	1a7c <_ZN7failure17fail_bounds_check20h15b60dbe339b6e592Xv11v0.11.0.preE>
    1a1a:	a814      	add	r0, sp, #80	; 0x50
    1a1c:	2101      	movs	r1, #1
    1a1e:	2202      	movs	r2, #2
    1a20:	f000 f82c 	bl	1a7c <_ZN7failure17fail_bounds_check20h15b60dbe339b6e592Xv11v0.11.0.preE>
    1a24:	a812      	add	r0, sp, #72	; 0x48
    1a26:	2101      	movs	r1, #1
    1a28:	2203      	movs	r2, #3
    1a2a:	f000 f827 	bl	1a7c <_ZN7failure17fail_bounds_check20h15b60dbe339b6e592Xv11v0.11.0.preE>
    1a2e:	a810      	add	r0, sp, #64	; 0x40
    1a30:	2101      	movs	r1, #1
    1a32:	2200      	movs	r2, #0
    1a34:	f000 f822 	bl	1a7c <_ZN7failure17fail_bounds_check20h15b60dbe339b6e592Xv11v0.11.0.preE>

00001a38 <kill_current_task>:
    1a38:	e92d 4800 	stmdb	sp!, {fp, lr}
    1a3c:	b082      	sub	sp, #8
    1a3e:	f240 0000 	movw	r0, #0
    1a42:	f2c1 0000 	movt	r0, #4096	; 0x1000
    1a46:	6802      	ldr	r2, [r0, #0]
    1a48:	2a04      	cmp	r2, #4
    1a4a:	bf3f      	itttt	cc
    1a4c:	eb02 0142 	addcc.w	r1, r2, r2, lsl #1
    1a50:	eb00 0081 	addcc.w	r0, r0, r1, lsl #2
    1a54:	2100      	movcc	r1, #0
    1a56:	6081      	strcc	r1, [r0, #8]
    1a58:	bf3f      	itttt	cc
    1a5a:	f64e 5000 	movwcc	r0, #60672	; 0xed00
    1a5e:	f2ce 0000 	movtcc	r0, #57344	; 0xe000
    1a62:	f04f 5180 	movcc.w	r1, #268435456	; 0x10000000
    1a66:	6041      	strcc	r1, [r0, #4]
    1a68:	bf3c      	itt	cc
    1a6a:	b002      	addcc	sp, #8
    1a6c:	e8bd 8800 	ldmiacc.w	sp!, {fp, pc}
    1a70:	4668      	mov	r0, sp
    1a72:	2164      	movs	r1, #100	; 0x64
    1a74:	2304      	movs	r3, #4
    1a76:	f000 f801 	bl	1a7c <_ZN7failure17fail_bounds_check20h15b60dbe339b6e592Xv11v0.11.0.preE>
	...

00001a7c <_ZN7failure17fail_bounds_check20h15b60dbe339b6e592Xv11v0.11.0.preE>:
    1a7c:	b430      	push	{r4, r5}
    1a7e:	ee1d 4f70 	mrc	15, 0, r4, cr13, cr0, {3}
    1a82:	466d      	mov	r5, sp
    1a84:	e594      	b.n	15b0 <_ZN7drivers3lcd6c1233239C12332$LT$$x27a$C$$x20S$C$$x20T$GT$.LCD5flush21h113857806729637309524v0.0E+0x660>
    1a86:	4004      	ands	r4, r0
    1a88:	42ac      	cmp	r4, r5
    1a8a:	d308      	bcc.n	1a9e <_ZN7failure17fail_bounds_check20h15b60dbe339b6e592Xv11v0.11.0.preE+0x22>
    1a8c:	2400      	movs	r4, #0
    1a8e:	2500      	movs	r5, #0
    1a90:	b500      	push	{lr}
    1a92:	f7ff fa07 	bl	ea4 <__morestack>
    1a96:	f85d eb04 	ldr.w	lr, [sp], #4
    1a9a:	bc30      	pop	{r4, r5}
    1a9c:	4770      	bx	lr
    1a9e:	bc30      	pop	{r4, r5}
    1aa0:	bf00      	nop
	...

00001aa4 <isr_adc>:
    1aa4:	f3ef 8009 	mrs	r0, PSP
    1aa8:	f3ef 8108 	mrs	r1, MSP
    1aac:	6982      	ldr	r2, [r0, #24]
    1aae:	698b      	ldr	r3, [r1, #24]
    1ab0:	be00      	bkpt	0x0000
    1ab2:	4770      	bx	lr

00001ab4 <memcpy>:
    1ab4:	2a00      	cmp	r2, #0
    1ab6:	bfd8      	it	le
    1ab8:	4770      	bxle	lr
    1aba:	f811 3b01 	ldrb.w	r3, [r1], #1
    1abe:	3a01      	subs	r2, #1
    1ac0:	f800 3b01 	strb.w	r3, [r0], #1
    1ac4:	d1f9      	bne.n	1aba <memcpy+0x6>
    1ac6:	4770      	bx	lr

00001ac8 <__aeabi_memcpy>:
    1ac8:	f7ff bff4 	b.w	1ab4 <memcpy>

00001acc <memset>:
    1acc:	2a01      	cmp	r2, #1
    1ace:	bfb8      	it	lt
    1ad0:	4770      	bxlt	lr
    1ad2:	f800 1b01 	strb.w	r1, [r0], #1
    1ad6:	3a01      	subs	r2, #1
    1ad8:	d1fb      	bne.n	1ad2 <memset+0x6>
    1ada:	4770      	bx	lr

00001adc <__aeabi_memset>:
    1adc:	460b      	mov	r3, r1
    1ade:	4611      	mov	r1, r2
    1ae0:	461a      	mov	r2, r3
    1ae2:	f7ff bff3 	b.w	1acc <memset>
	...

00001ae8 <abort>:
    1ae8:	be00      	bkpt	0x0000
    1aea:	e7fe      	b.n	1aea <abort+0x2>

00001aec <__aeabi_unwind_cpp_pr0>:
    1aec:	e92d 4800 	stmdb	sp!, {fp, lr}
    1af0:	f7ff fffa 	bl	1ae8 <abort>

00001af4 <isr_systick>:
    1af4:	f3ef 8009 	mrs	r0, PSP
    1af8:	e920 0ff0 	stmdb	r0!, {r4, r5, r6, r7, r8, r9, sl, fp}
    1afc:	f380 8809 	msr	PSP, r0
    1b00:	f7ff f9de 	bl	ec0 <task_scheduler>
    1b04:	f3ef 8009 	mrs	r0, PSP
    1b08:	e8b0 0ff0 	ldmia.w	r0!, {r4, r5, r6, r7, r8, r9, sl, fp}
    1b0c:	f380 8809 	msr	PSP, r0
    1b10:	f8df e004 	ldr.w	lr, [pc, #4]	; 1b18 <isr_systick+0x24>
    1b14:	4770      	bx	lr
    1b16:	fffd0000 			; <UNDEFINED> instruction: 0xfffd0000
    1b1a:	f3efffff 			; <UNDEFINED> instruction: 0xf3efffff

00001b1c <isr_pendsv>:
    1b1c:	f3ef 8009 	mrs	r0, PSP
    1b20:	e920 0ff0 	stmdb	r0!, {r4, r5, r6, r7, r8, r9, sl, fp}
    1b24:	f380 8809 	msr	PSP, r0
    1b28:	f7ff f9ca 	bl	ec0 <task_scheduler>
    1b2c:	f3ef 8009 	mrs	r0, PSP
    1b30:	e8b0 0ff0 	ldmia.w	r0!, {r4, r5, r6, r7, r8, r9, sl, fp}
    1b34:	f380 8809 	msr	PSP, r0
    1b38:	f8df e004 	ldr.w	lr, [pc, #4]	; 1b40 <isr_pendsv+0x24>
    1b3c:	4770      	bx	lr
    1b3e:	fffd0000 			; <UNDEFINED> instruction: 0xfffd0000
    1b42:	f3efffff 			; <UNDEFINED> instruction: 0xf3efffff

00001b44 <isr_svcall>:
    1b44:	f3ef 8209 	mrs	r2, PSP
    1b48:	6811      	ldr	r1, [r2, #0]
    1b4a:	6850      	ldr	r0, [r2, #4]
    1b4c:	b500      	push	{lr}
    1b4e:	4788      	blx	r1
    1b50:	bd00      	pop	{pc}
    1b52:	bf00      	nop

00001b54 <syscall>:
    1b54:	df00      	svc	0
    1b56:	4770      	bx	lr

00001b58 <__aeabi_frsub>:
    1b58:	f080 4000 	eor.w	r0, r0, #2147483648	; 0x80000000
    1b5c:	e002      	b.n	1b64 <__addsf3>
    1b5e:	bf00      	nop

00001b60 <__aeabi_fsub>:
    1b60:	f081 4100 	eor.w	r1, r1, #2147483648	; 0x80000000

00001b64 <__addsf3>:
    1b64:	0042      	lsls	r2, r0, #1
    1b66:	bf1f      	itttt	ne
    1b68:	ea5f 0341 	movsne.w	r3, r1, lsl #1
    1b6c:	ea92 0f03 	teqne	r2, r3
    1b70:	ea7f 6c22 	mvnsne.w	ip, r2, asr #24
    1b74:	ea7f 6c23 	mvnsne.w	ip, r3, asr #24
    1b78:	d06a      	beq.n	1c50 <__addsf3+0xec>
    1b7a:	ea4f 6212 	mov.w	r2, r2, lsr #24
    1b7e:	ebd2 6313 	rsbs	r3, r2, r3, lsr #24
    1b82:	bfc1      	itttt	gt
    1b84:	18d2      	addgt	r2, r2, r3
    1b86:	4041      	eorgt	r1, r0
    1b88:	4048      	eorgt	r0, r1
    1b8a:	4041      	eorgt	r1, r0
    1b8c:	bfb8      	it	lt
    1b8e:	425b      	neglt	r3, r3
    1b90:	2b19      	cmp	r3, #25
    1b92:	bf88      	it	hi
    1b94:	4770      	bxhi	lr
    1b96:	f010 4f00 	tst.w	r0, #2147483648	; 0x80000000
    1b9a:	f440 0000 	orr.w	r0, r0, #8388608	; 0x800000
    1b9e:	f020 407f 	bic.w	r0, r0, #4278190080	; 0xff000000
    1ba2:	bf18      	it	ne
    1ba4:	4240      	negne	r0, r0
    1ba6:	f011 4f00 	tst.w	r1, #2147483648	; 0x80000000
    1baa:	f441 0100 	orr.w	r1, r1, #8388608	; 0x800000
    1bae:	f021 417f 	bic.w	r1, r1, #4278190080	; 0xff000000
    1bb2:	bf18      	it	ne
    1bb4:	4249      	negne	r1, r1
    1bb6:	ea92 0f03 	teq	r2, r3
    1bba:	d03f      	beq.n	1c3c <__addsf3+0xd8>
    1bbc:	f1a2 0201 	sub.w	r2, r2, #1
    1bc0:	fa41 fc03 	asr.w	ip, r1, r3
    1bc4:	eb10 000c 	adds.w	r0, r0, ip
    1bc8:	f1c3 0320 	rsb	r3, r3, #32
    1bcc:	fa01 f103 	lsl.w	r1, r1, r3
    1bd0:	f000 4300 	and.w	r3, r0, #2147483648	; 0x80000000
    1bd4:	d502      	bpl.n	1bdc <__addsf3+0x78>
    1bd6:	4249      	negs	r1, r1
    1bd8:	eb60 0040 	sbc.w	r0, r0, r0, lsl #1
    1bdc:	f5b0 0f00 	cmp.w	r0, #8388608	; 0x800000
    1be0:	d313      	bcc.n	1c0a <__addsf3+0xa6>
    1be2:	f1b0 7f80 	cmp.w	r0, #16777216	; 0x1000000
    1be6:	d306      	bcc.n	1bf6 <__addsf3+0x92>
    1be8:	0840      	lsrs	r0, r0, #1
    1bea:	ea4f 0131 	mov.w	r1, r1, rrx
    1bee:	f102 0201 	add.w	r2, r2, #1
    1bf2:	2afe      	cmp	r2, #254	; 0xfe
    1bf4:	d251      	bcs.n	1c9a <__addsf3+0x136>
    1bf6:	f1b1 4f00 	cmp.w	r1, #2147483648	; 0x80000000
    1bfa:	eb40 50c2 	adc.w	r0, r0, r2, lsl #23
    1bfe:	bf08      	it	eq
    1c00:	f020 0001 	biceq.w	r0, r0, #1
    1c04:	ea40 0003 	orr.w	r0, r0, r3
    1c08:	4770      	bx	lr
    1c0a:	0049      	lsls	r1, r1, #1
    1c0c:	eb40 0000 	adc.w	r0, r0, r0
    1c10:	f410 0f00 	tst.w	r0, #8388608	; 0x800000
    1c14:	f1a2 0201 	sub.w	r2, r2, #1
    1c18:	d1ed      	bne.n	1bf6 <__addsf3+0x92>
    1c1a:	fab0 fc80 	clz	ip, r0
    1c1e:	f1ac 0c08 	sub.w	ip, ip, #8
    1c22:	ebb2 020c 	subs.w	r2, r2, ip
    1c26:	fa00 f00c 	lsl.w	r0, r0, ip
    1c2a:	bfaa      	itet	ge
    1c2c:	eb00 50c2 	addge.w	r0, r0, r2, lsl #23
    1c30:	4252      	neglt	r2, r2
    1c32:	4318      	orrge	r0, r3
    1c34:	bfbc      	itt	lt
    1c36:	40d0      	lsrlt	r0, r2
    1c38:	4318      	orrlt	r0, r3
    1c3a:	4770      	bx	lr
    1c3c:	f092 0f00 	teq	r2, #0
    1c40:	f481 0100 	eor.w	r1, r1, #8388608	; 0x800000
    1c44:	bf06      	itte	eq
    1c46:	f480 0000 	eoreq.w	r0, r0, #8388608	; 0x800000
    1c4a:	3201      	addeq	r2, #1
    1c4c:	3b01      	subne	r3, #1
    1c4e:	e7b5      	b.n	1bbc <__addsf3+0x58>
    1c50:	ea4f 0341 	mov.w	r3, r1, lsl #1
    1c54:	ea7f 6c22 	mvns.w	ip, r2, asr #24
    1c58:	bf18      	it	ne
    1c5a:	ea7f 6c23 	mvnsne.w	ip, r3, asr #24
    1c5e:	d021      	beq.n	1ca4 <__addsf3+0x140>
    1c60:	ea92 0f03 	teq	r2, r3
    1c64:	d004      	beq.n	1c70 <__addsf3+0x10c>
    1c66:	f092 0f00 	teq	r2, #0
    1c6a:	bf08      	it	eq
    1c6c:	4608      	moveq	r0, r1
    1c6e:	4770      	bx	lr
    1c70:	ea90 0f01 	teq	r0, r1
    1c74:	bf1c      	itt	ne
    1c76:	2000      	movne	r0, #0
    1c78:	4770      	bxne	lr
    1c7a:	f012 4f7f 	tst.w	r2, #4278190080	; 0xff000000
    1c7e:	d104      	bne.n	1c8a <__addsf3+0x126>
    1c80:	0040      	lsls	r0, r0, #1
    1c82:	bf28      	it	cs
    1c84:	f040 4000 	orrcs.w	r0, r0, #2147483648	; 0x80000000
    1c88:	4770      	bx	lr
    1c8a:	f112 7200 	adds.w	r2, r2, #33554432	; 0x2000000
    1c8e:	bf3c      	itt	cc
    1c90:	f500 0000 	addcc.w	r0, r0, #8388608	; 0x800000
    1c94:	4770      	bxcc	lr
    1c96:	f000 4300 	and.w	r3, r0, #2147483648	; 0x80000000
    1c9a:	f043 40fe 	orr.w	r0, r3, #2130706432	; 0x7f000000
    1c9e:	f440 0000 	orr.w	r0, r0, #8388608	; 0x800000
    1ca2:	4770      	bx	lr
    1ca4:	ea7f 6222 	mvns.w	r2, r2, asr #24
    1ca8:	bf16      	itet	ne
    1caa:	4608      	movne	r0, r1
    1cac:	ea7f 6323 	mvnseq.w	r3, r3, asr #24
    1cb0:	4601      	movne	r1, r0
    1cb2:	0242      	lsls	r2, r0, #9
    1cb4:	bf06      	itte	eq
    1cb6:	ea5f 2341 	movseq.w	r3, r1, lsl #9
    1cba:	ea90 0f01 	teqeq	r0, r1
    1cbe:	f440 0080 	orrne.w	r0, r0, #4194304	; 0x400000
    1cc2:	4770      	bx	lr

00001cc4 <__aeabi_ui2f>:
    1cc4:	f04f 0300 	mov.w	r3, #0
    1cc8:	e004      	b.n	1cd4 <__aeabi_i2f+0x8>
    1cca:	bf00      	nop

00001ccc <__aeabi_i2f>:
    1ccc:	f010 4300 	ands.w	r3, r0, #2147483648	; 0x80000000
    1cd0:	bf48      	it	mi
    1cd2:	4240      	negmi	r0, r0
    1cd4:	ea5f 0c00 	movs.w	ip, r0
    1cd8:	bf08      	it	eq
    1cda:	4770      	bxeq	lr
    1cdc:	f043 4396 	orr.w	r3, r3, #1258291200	; 0x4b000000
    1ce0:	4601      	mov	r1, r0
    1ce2:	f04f 0000 	mov.w	r0, #0
    1ce6:	e01c      	b.n	1d22 <__aeabi_l2f+0x2a>

00001ce8 <__aeabi_ul2f>:
    1ce8:	ea50 0201 	orrs.w	r2, r0, r1
    1cec:	bf08      	it	eq
    1cee:	4770      	bxeq	lr
    1cf0:	f04f 0300 	mov.w	r3, #0
    1cf4:	e00a      	b.n	1d0c <__aeabi_l2f+0x14>
    1cf6:	bf00      	nop

00001cf8 <__aeabi_l2f>:
    1cf8:	ea50 0201 	orrs.w	r2, r0, r1
    1cfc:	bf08      	it	eq
    1cfe:	4770      	bxeq	lr
    1d00:	f011 4300 	ands.w	r3, r1, #2147483648	; 0x80000000
    1d04:	d502      	bpl.n	1d0c <__aeabi_l2f+0x14>
    1d06:	4240      	negs	r0, r0
    1d08:	eb61 0141 	sbc.w	r1, r1, r1, lsl #1
    1d0c:	ea5f 0c01 	movs.w	ip, r1
    1d10:	bf02      	ittt	eq
    1d12:	4684      	moveq	ip, r0
    1d14:	4601      	moveq	r1, r0
    1d16:	2000      	moveq	r0, #0
    1d18:	f043 43b6 	orr.w	r3, r3, #1526726656	; 0x5b000000
    1d1c:	bf08      	it	eq
    1d1e:	f1a3 5380 	subeq.w	r3, r3, #268435456	; 0x10000000
    1d22:	f5a3 0300 	sub.w	r3, r3, #8388608	; 0x800000
    1d26:	fabc f28c 	clz	r2, ip
    1d2a:	3a08      	subs	r2, #8
    1d2c:	eba3 53c2 	sub.w	r3, r3, r2, lsl #23
    1d30:	db10      	blt.n	1d54 <__aeabi_l2f+0x5c>
    1d32:	fa01 fc02 	lsl.w	ip, r1, r2
    1d36:	4463      	add	r3, ip
    1d38:	fa00 fc02 	lsl.w	ip, r0, r2
    1d3c:	f1c2 0220 	rsb	r2, r2, #32
    1d40:	f1bc 4f00 	cmp.w	ip, #2147483648	; 0x80000000
    1d44:	fa20 f202 	lsr.w	r2, r0, r2
    1d48:	eb43 0002 	adc.w	r0, r3, r2
    1d4c:	bf08      	it	eq
    1d4e:	f020 0001 	biceq.w	r0, r0, #1
    1d52:	4770      	bx	lr
    1d54:	f102 0220 	add.w	r2, r2, #32
    1d58:	fa01 fc02 	lsl.w	ip, r1, r2
    1d5c:	f1c2 0220 	rsb	r2, r2, #32
    1d60:	ea50 004c 	orrs.w	r0, r0, ip, lsl #1
    1d64:	fa21 f202 	lsr.w	r2, r1, r2
    1d68:	eb43 0002 	adc.w	r0, r3, r2
    1d6c:	bf08      	it	eq
    1d6e:	ea20 70dc 	biceq.w	r0, r0, ip, lsr #31
    1d72:	4770      	bx	lr

00001d74 <__aeabi_fmul>:
    1d74:	f04f 0cff 	mov.w	ip, #255	; 0xff
    1d78:	ea1c 52d0 	ands.w	r2, ip, r0, lsr #23
    1d7c:	bf1e      	ittt	ne
    1d7e:	ea1c 53d1 	andsne.w	r3, ip, r1, lsr #23
    1d82:	ea92 0f0c 	teqne	r2, ip
    1d86:	ea93 0f0c 	teqne	r3, ip
    1d8a:	d06f      	beq.n	1e6c <__aeabi_fmul+0xf8>
    1d8c:	441a      	add	r2, r3
    1d8e:	ea80 0c01 	eor.w	ip, r0, r1
    1d92:	0240      	lsls	r0, r0, #9
    1d94:	bf18      	it	ne
    1d96:	ea5f 2141 	movsne.w	r1, r1, lsl #9
    1d9a:	d01e      	beq.n	1dda <__aeabi_fmul+0x66>
    1d9c:	f04f 6300 	mov.w	r3, #134217728	; 0x8000000
    1da0:	ea43 1050 	orr.w	r0, r3, r0, lsr #5
    1da4:	ea43 1151 	orr.w	r1, r3, r1, lsr #5
    1da8:	fba0 3101 	umull	r3, r1, r0, r1
    1dac:	f00c 4000 	and.w	r0, ip, #2147483648	; 0x80000000
    1db0:	f5b1 0f00 	cmp.w	r1, #8388608	; 0x800000
    1db4:	bf3e      	ittt	cc
    1db6:	0049      	lslcc	r1, r1, #1
    1db8:	ea41 71d3 	orrcc.w	r1, r1, r3, lsr #31
    1dbc:	005b      	lslcc	r3, r3, #1
    1dbe:	ea40 0001 	orr.w	r0, r0, r1
    1dc2:	f162 027f 	sbc.w	r2, r2, #127	; 0x7f
    1dc6:	2afd      	cmp	r2, #253	; 0xfd
    1dc8:	d81d      	bhi.n	1e06 <__aeabi_fmul+0x92>
    1dca:	f1b3 4f00 	cmp.w	r3, #2147483648	; 0x80000000
    1dce:	eb40 50c2 	adc.w	r0, r0, r2, lsl #23
    1dd2:	bf08      	it	eq
    1dd4:	f020 0001 	biceq.w	r0, r0, #1
    1dd8:	4770      	bx	lr
    1dda:	f090 0f00 	teq	r0, #0
    1dde:	f00c 4c00 	and.w	ip, ip, #2147483648	; 0x80000000
    1de2:	bf08      	it	eq
    1de4:	0249      	lsleq	r1, r1, #9
    1de6:	ea4c 2050 	orr.w	r0, ip, r0, lsr #9
    1dea:	ea40 2051 	orr.w	r0, r0, r1, lsr #9
    1dee:	3a7f      	subs	r2, #127	; 0x7f
    1df0:	bfc2      	ittt	gt
    1df2:	f1d2 03ff 	rsbsgt	r3, r2, #255	; 0xff
    1df6:	ea40 50c2 	orrgt.w	r0, r0, r2, lsl #23
    1dfa:	4770      	bxgt	lr
    1dfc:	f440 0000 	orr.w	r0, r0, #8388608	; 0x800000
    1e00:	f04f 0300 	mov.w	r3, #0
    1e04:	3a01      	subs	r2, #1
    1e06:	dc5d      	bgt.n	1ec4 <__aeabi_fmul+0x150>
    1e08:	f112 0f19 	cmn.w	r2, #25
    1e0c:	bfdc      	itt	le
    1e0e:	f000 4000 	andle.w	r0, r0, #2147483648	; 0x80000000
    1e12:	4770      	bxle	lr
    1e14:	f1c2 0200 	rsb	r2, r2, #0
    1e18:	0041      	lsls	r1, r0, #1
    1e1a:	fa21 f102 	lsr.w	r1, r1, r2
    1e1e:	f1c2 0220 	rsb	r2, r2, #32
    1e22:	fa00 fc02 	lsl.w	ip, r0, r2
    1e26:	ea5f 0031 	movs.w	r0, r1, rrx
    1e2a:	f140 0000 	adc.w	r0, r0, #0
    1e2e:	ea53 034c 	orrs.w	r3, r3, ip, lsl #1
    1e32:	bf08      	it	eq
    1e34:	ea20 70dc 	biceq.w	r0, r0, ip, lsr #31
    1e38:	4770      	bx	lr
    1e3a:	f092 0f00 	teq	r2, #0
    1e3e:	f000 4c00 	and.w	ip, r0, #2147483648	; 0x80000000
    1e42:	bf02      	ittt	eq
    1e44:	0040      	lsleq	r0, r0, #1
    1e46:	f410 0f00 	tsteq.w	r0, #8388608	; 0x800000
    1e4a:	3a01      	subeq	r2, #1
    1e4c:	d0f9      	beq.n	1e42 <__aeabi_fmul+0xce>
    1e4e:	ea40 000c 	orr.w	r0, r0, ip
    1e52:	f093 0f00 	teq	r3, #0
    1e56:	f001 4c00 	and.w	ip, r1, #2147483648	; 0x80000000
    1e5a:	bf02      	ittt	eq
    1e5c:	0049      	lsleq	r1, r1, #1
    1e5e:	f411 0f00 	tsteq.w	r1, #8388608	; 0x800000
    1e62:	3b01      	subeq	r3, #1
    1e64:	d0f9      	beq.n	1e5a <__aeabi_fmul+0xe6>
    1e66:	ea41 010c 	orr.w	r1, r1, ip
    1e6a:	e78f      	b.n	1d8c <__aeabi_fmul+0x18>
    1e6c:	ea0c 53d1 	and.w	r3, ip, r1, lsr #23
    1e70:	ea92 0f0c 	teq	r2, ip
    1e74:	bf18      	it	ne
    1e76:	ea93 0f0c 	teqne	r3, ip
    1e7a:	d00a      	beq.n	1e92 <__aeabi_fmul+0x11e>
    1e7c:	f030 4c00 	bics.w	ip, r0, #2147483648	; 0x80000000
    1e80:	bf18      	it	ne
    1e82:	f031 4c00 	bicsne.w	ip, r1, #2147483648	; 0x80000000
    1e86:	d1d8      	bne.n	1e3a <__aeabi_fmul+0xc6>
    1e88:	ea80 0001 	eor.w	r0, r0, r1
    1e8c:	f000 4000 	and.w	r0, r0, #2147483648	; 0x80000000
    1e90:	4770      	bx	lr
    1e92:	f090 0f00 	teq	r0, #0
    1e96:	bf17      	itett	ne
    1e98:	f090 4f00 	teqne	r0, #2147483648	; 0x80000000
    1e9c:	4608      	moveq	r0, r1
    1e9e:	f091 0f00 	teqne	r1, #0
    1ea2:	f091 4f00 	teqne	r1, #2147483648	; 0x80000000
    1ea6:	d014      	beq.n	1ed2 <__aeabi_fmul+0x15e>
    1ea8:	ea92 0f0c 	teq	r2, ip
    1eac:	d101      	bne.n	1eb2 <__aeabi_fmul+0x13e>
    1eae:	0242      	lsls	r2, r0, #9
    1eb0:	d10f      	bne.n	1ed2 <__aeabi_fmul+0x15e>
    1eb2:	ea93 0f0c 	teq	r3, ip
    1eb6:	d103      	bne.n	1ec0 <__aeabi_fmul+0x14c>
    1eb8:	024b      	lsls	r3, r1, #9
    1eba:	bf18      	it	ne
    1ebc:	4608      	movne	r0, r1
    1ebe:	d108      	bne.n	1ed2 <__aeabi_fmul+0x15e>
    1ec0:	ea80 0001 	eor.w	r0, r0, r1
    1ec4:	f000 4000 	and.w	r0, r0, #2147483648	; 0x80000000
    1ec8:	f040 40fe 	orr.w	r0, r0, #2130706432	; 0x7f000000
    1ecc:	f440 0000 	orr.w	r0, r0, #8388608	; 0x800000
    1ed0:	4770      	bx	lr
    1ed2:	f040 40fe 	orr.w	r0, r0, #2130706432	; 0x7f000000
    1ed6:	f440 0040 	orr.w	r0, r0, #12582912	; 0xc00000
    1eda:	4770      	bx	lr

00001edc <__aeabi_fdiv>:
    1edc:	f04f 0cff 	mov.w	ip, #255	; 0xff
    1ee0:	ea1c 52d0 	ands.w	r2, ip, r0, lsr #23
    1ee4:	bf1e      	ittt	ne
    1ee6:	ea1c 53d1 	andsne.w	r3, ip, r1, lsr #23
    1eea:	ea92 0f0c 	teqne	r2, ip
    1eee:	ea93 0f0c 	teqne	r3, ip
    1ef2:	d069      	beq.n	1fc8 <__aeabi_fdiv+0xec>
    1ef4:	eba2 0203 	sub.w	r2, r2, r3
    1ef8:	ea80 0c01 	eor.w	ip, r0, r1
    1efc:	0249      	lsls	r1, r1, #9
    1efe:	ea4f 2040 	mov.w	r0, r0, lsl #9
    1f02:	d037      	beq.n	1f74 <__aeabi_fdiv+0x98>
    1f04:	f04f 5380 	mov.w	r3, #268435456	; 0x10000000
    1f08:	ea43 1111 	orr.w	r1, r3, r1, lsr #4
    1f0c:	ea43 1310 	orr.w	r3, r3, r0, lsr #4
    1f10:	f00c 4000 	and.w	r0, ip, #2147483648	; 0x80000000
    1f14:	428b      	cmp	r3, r1
    1f16:	bf38      	it	cc
    1f18:	005b      	lslcc	r3, r3, #1
    1f1a:	f142 027d 	adc.w	r2, r2, #125	; 0x7d
    1f1e:	f44f 0c00 	mov.w	ip, #8388608	; 0x800000
    1f22:	428b      	cmp	r3, r1
    1f24:	bf24      	itt	cs
    1f26:	1a5b      	subcs	r3, r3, r1
    1f28:	ea40 000c 	orrcs.w	r0, r0, ip
    1f2c:	ebb3 0f51 	cmp.w	r3, r1, lsr #1
    1f30:	bf24      	itt	cs
    1f32:	eba3 0351 	subcs.w	r3, r3, r1, lsr #1
    1f36:	ea40 005c 	orrcs.w	r0, r0, ip, lsr #1
    1f3a:	ebb3 0f91 	cmp.w	r3, r1, lsr #2
    1f3e:	bf24      	itt	cs
    1f40:	eba3 0391 	subcs.w	r3, r3, r1, lsr #2
    1f44:	ea40 009c 	orrcs.w	r0, r0, ip, lsr #2
    1f48:	ebb3 0fd1 	cmp.w	r3, r1, lsr #3
    1f4c:	bf24      	itt	cs
    1f4e:	eba3 03d1 	subcs.w	r3, r3, r1, lsr #3
    1f52:	ea40 00dc 	orrcs.w	r0, r0, ip, lsr #3
    1f56:	011b      	lsls	r3, r3, #4
    1f58:	bf18      	it	ne
    1f5a:	ea5f 1c1c 	movsne.w	ip, ip, lsr #4
    1f5e:	d1e0      	bne.n	1f22 <__aeabi_fdiv+0x46>
    1f60:	2afd      	cmp	r2, #253	; 0xfd
    1f62:	f63f af50 	bhi.w	1e06 <__aeabi_fmul+0x92>
    1f66:	428b      	cmp	r3, r1
    1f68:	eb40 50c2 	adc.w	r0, r0, r2, lsl #23
    1f6c:	bf08      	it	eq
    1f6e:	f020 0001 	biceq.w	r0, r0, #1
    1f72:	4770      	bx	lr
    1f74:	f00c 4c00 	and.w	ip, ip, #2147483648	; 0x80000000
    1f78:	ea4c 2050 	orr.w	r0, ip, r0, lsr #9
    1f7c:	327f      	adds	r2, #127	; 0x7f
    1f7e:	bfc2      	ittt	gt
    1f80:	f1d2 03ff 	rsbsgt	r3, r2, #255	; 0xff
    1f84:	ea40 50c2 	orrgt.w	r0, r0, r2, lsl #23
    1f88:	4770      	bxgt	lr
    1f8a:	f440 0000 	orr.w	r0, r0, #8388608	; 0x800000
    1f8e:	f04f 0300 	mov.w	r3, #0
    1f92:	3a01      	subs	r2, #1
    1f94:	e737      	b.n	1e06 <__aeabi_fmul+0x92>
    1f96:	f092 0f00 	teq	r2, #0
    1f9a:	f000 4c00 	and.w	ip, r0, #2147483648	; 0x80000000
    1f9e:	bf02      	ittt	eq
    1fa0:	0040      	lsleq	r0, r0, #1
    1fa2:	f410 0f00 	tsteq.w	r0, #8388608	; 0x800000
    1fa6:	3a01      	subeq	r2, #1
    1fa8:	d0f9      	beq.n	1f9e <__aeabi_fdiv+0xc2>
    1faa:	ea40 000c 	orr.w	r0, r0, ip
    1fae:	f093 0f00 	teq	r3, #0
    1fb2:	f001 4c00 	and.w	ip, r1, #2147483648	; 0x80000000
    1fb6:	bf02      	ittt	eq
    1fb8:	0049      	lsleq	r1, r1, #1
    1fba:	f411 0f00 	tsteq.w	r1, #8388608	; 0x800000
    1fbe:	3b01      	subeq	r3, #1
    1fc0:	d0f9      	beq.n	1fb6 <__aeabi_fdiv+0xda>
    1fc2:	ea41 010c 	orr.w	r1, r1, ip
    1fc6:	e795      	b.n	1ef4 <__aeabi_fdiv+0x18>
    1fc8:	ea0c 53d1 	and.w	r3, ip, r1, lsr #23
    1fcc:	ea92 0f0c 	teq	r2, ip
    1fd0:	d108      	bne.n	1fe4 <__aeabi_fdiv+0x108>
    1fd2:	0242      	lsls	r2, r0, #9
    1fd4:	f47f af7d 	bne.w	1ed2 <__aeabi_fmul+0x15e>
    1fd8:	ea93 0f0c 	teq	r3, ip
    1fdc:	f47f af70 	bne.w	1ec0 <__aeabi_fmul+0x14c>
    1fe0:	4608      	mov	r0, r1
    1fe2:	e776      	b.n	1ed2 <__aeabi_fmul+0x15e>
    1fe4:	ea93 0f0c 	teq	r3, ip
    1fe8:	d104      	bne.n	1ff4 <__aeabi_fdiv+0x118>
    1fea:	024b      	lsls	r3, r1, #9
    1fec:	f43f af4c 	beq.w	1e88 <__aeabi_fmul+0x114>
    1ff0:	4608      	mov	r0, r1
    1ff2:	e76e      	b.n	1ed2 <__aeabi_fmul+0x15e>
    1ff4:	f030 4c00 	bics.w	ip, r0, #2147483648	; 0x80000000
    1ff8:	bf18      	it	ne
    1ffa:	f031 4c00 	bicsne.w	ip, r1, #2147483648	; 0x80000000
    1ffe:	d1ca      	bne.n	1f96 <__aeabi_fdiv+0xba>
    2000:	f030 4200 	bics.w	r2, r0, #2147483648	; 0x80000000
    2004:	f47f af5c 	bne.w	1ec0 <__aeabi_fmul+0x14c>
    2008:	f031 4300 	bics.w	r3, r1, #2147483648	; 0x80000000
    200c:	f47f af3c 	bne.w	1e88 <__aeabi_fmul+0x114>
    2010:	e75f      	b.n	1ed2 <__aeabi_fmul+0x15e>
    2012:	bf00      	nop

00002014 <__aeabi_f2uiz>:
    2014:	0042      	lsls	r2, r0, #1
    2016:	d20e      	bcs.n	2036 <__aeabi_f2uiz+0x22>
    2018:	f1b2 4ffe 	cmp.w	r2, #2130706432	; 0x7f000000
    201c:	d30b      	bcc.n	2036 <__aeabi_f2uiz+0x22>
    201e:	f04f 039e 	mov.w	r3, #158	; 0x9e
    2022:	ebb3 6212 	subs.w	r2, r3, r2, lsr #24
    2026:	d409      	bmi.n	203c <__aeabi_f2uiz+0x28>
    2028:	ea4f 2300 	mov.w	r3, r0, lsl #8
    202c:	f043 4300 	orr.w	r3, r3, #2147483648	; 0x80000000
    2030:	fa23 f002 	lsr.w	r0, r3, r2
    2034:	4770      	bx	lr
    2036:	f04f 0000 	mov.w	r0, #0
    203a:	4770      	bx	lr
    203c:	f112 0f61 	cmn.w	r2, #97	; 0x61
    2040:	d101      	bne.n	2046 <__aeabi_f2uiz+0x32>
    2042:	0242      	lsls	r2, r0, #9
    2044:	d102      	bne.n	204c <__aeabi_f2uiz+0x38>
    2046:	f04f 30ff 	mov.w	r0, #4294967295	; 0xffffffff
    204a:	4770      	bx	lr
    204c:	f04f 0000 	mov.w	r0, #0
    2050:	4770      	bx	lr
    2052:	bf00      	nop
	...

00002060 <_ZN8platform20hefb5037656864dfcLaa4v0.0E>:
    2060:	00000001 	andeq	r0, r0, r1
    2064:	00b71b00 	adcseq	r1, r7, r0, lsl #22
    2068:	04033201 	streq	r3, [r3], #-513	; 0x201
    206c:	00000001 	andeq	r0, r0, r1
    2070:	00000019 	andeq	r0, r0, r9, lsl r0
    2074:	00000004 	andeq	r0, r0, r4
    2078:	00030801 	andeq	r0, r3, r1, lsl #16
    207c:	005b8d80 	subseq	r8, fp, r0, lsl #27
    2080:	02090000 	andeq	r0, r9, #0
    2084:	00000001 	andeq	r0, r0, r1
    2088:	02070000 	andeq	r0, r7, #0
    208c:	01000600 	tsteq	r0, r0, lsl #12
    2090:	01001200 	mrseq	r1, R8_usr
    2094:	01000800 	tsteq	r0, r0, lsl #16
	...

000020a0 <.Lconst>:
    20a0:	02090913 	andeq	r0, r9, #311296	; 0x4c000
    20a4:	00000005 	andeq	r0, r0, r5
	...
    20b4:	02000000 	andeq	r0, r0, #0
    20b8:	009e0000 	addseq	r0, lr, r0
	...
    20c8:	00040000 	andeq	r0, r4, r0
    20cc:	00000600 	andeq	r0, r0, r0, lsl #12
    20d0:	00000600 	andeq	r0, r0, r0, lsl #12
	...
    20dc:	00000600 	andeq	r0, r0, r0, lsl #12
    20e0:	00f80050 	rscseq	r0, r8, r0, asr r0
    20e4:	00f80050 	rscseq	r0, r8, r0, asr r0
    20e8:	00000050 	andeq	r0, r0, r0, asr r0
    20ec:	00000000 	andeq	r0, r0, r0
    20f0:	8c000006 	stchi	0, cr0, [r0], {6}
    20f4:	fe009200 	cdp2	2, 0, cr9, cr0, cr0, {0}
    20f8:	4000a201 	andmi	sl, r0, r1, lsl #4
    20fc:	00000000 	andeq	r0, r0, r0
    2100:	07000000 	streq	r0, [r0, -r0]
    2104:	0092001e 	addseq	r0, r2, lr, lsl r0
    2108:	0020005e 	eoreq	r0, r0, lr, asr r0
    210c:	009400f8 	ldrsheq	r0, [r4], r8
    2110:	000000f2 	strdeq	r0, [r0], -r2
    2114:	00070000 	andeq	r0, r7, r0
    2118:	9a006400 	bls	1b120 <_data_load+0x1894c>
    211c:	cc00aa00 	stcgt	10, cr10, [r0], {-0}
    2120:	80006000 	andhi	r6, r0, r0
    2124:	00000000 	andeq	r0, r0, r0
    2128:	00000200 	andeq	r0, r0, r0, lsl #4
    212c:	00000006 	andeq	r0, r0, r6
	...
    213c:	7c000003 	stcvc	0, cr0, [r0], {3}
    2140:	00018300 	andeq	r8, r1, r0, lsl #6
	...
    214c:	03000000 	movweq	r0, #0
    2150:	01830000 	orreq	r0, r3, r0
    2154:	0000007c 	andeq	r0, r0, ip, ror r0
	...
    2160:	00040000 	andeq	r0, r4, r0
    2164:	78003000 	stmdavc	r0, {ip, sp}
    2168:	00003000 	andeq	r3, r0, r0
	...
    2174:	00100500 	andseq	r0, r0, r0, lsl #10
    2178:	007c0010 	rsbseq	r0, ip, r0, lsl r0
    217c:	00100010 	andseq	r0, r0, r0, lsl r0
	...
    2188:	c0010002 	andgt	r0, r1, r2
	...
    2198:	04000000 	streq	r0, [r0], #-0
    219c:	00100000 	andseq	r0, r0, r0
    21a0:	00100010 	andseq	r0, r0, r0, lsl r0
	...
    21ac:	00020000 	andeq	r0, r2, r0
    21b0:	00008000 	andeq	r8, r0, r0
	...
    21c0:	01000400 	tsteq	r0, r0, lsl #8
    21c4:	001c00e0 	andseq	r0, ip, r0, ror #1
    21c8:	00000003 	andeq	r0, r0, r3
	...
    21d4:	7c000005 	stcvc	0, cr0, [r0], {5}
    21d8:	82008200 	andhi	r8, r0, #0, 4
    21dc:	00007c00 	andeq	r7, r0, r0, lsl #24
    21e0:	00000000 	andeq	r0, r0, r0
    21e4:	05000000 	streq	r0, [r0, #-0]
    21e8:	00080000 	andeq	r0, r8, r0
    21ec:	00fe0004 	rscseq	r0, lr, r4
	...
    21f8:	00050000 	andeq	r0, r5, r0
    21fc:	c2008400 	andgt	r8, r0, #0, 8
    2200:	9c00a200 	sfmls	f2, 1, [r0], {-0}
	...
    220c:	00000500 	andeq	r0, r0, r0, lsl #10
    2210:	00920082 	addseq	r0, r2, r2, lsl #1
    2214:	006c0092 	mlseq	ip, r2, r0, r0
	...
    2220:	38000005 	stmdacc	r0, {r0, r2}
    2224:	22002c00 	andcs	r2, r0, #0, 24
    2228:	0000fe00 	andeq	pc, r0, r0, lsl #28
    222c:	00000000 	andeq	r0, r0, r0
    2230:	05000000 	streq	r0, [r0, #-0]
    2234:	009e0000 	addseq	r0, lr, r0
    2238:	00920092 	umullseq	r0, r2, r2, r0
    223c:	00000062 	andeq	r0, r0, r2, rrx
    2240:	00000000 	andeq	r0, r0, r0
    2244:	00050000 	andeq	r0, r5, r0
    2248:	92007c00 	andls	r7, r0, #0, 24
    224c:	74009200 	strvc	r9, [r0], #-512	; 0x200
	...
    2258:	00000500 	andeq	r0, r0, r0, lsl #10
    225c:	00c20002 	sbceq	r0, r2, r2
    2260:	000e0032 	andeq	r0, lr, r2, lsr r0
	...
    226c:	6c000005 	stcvs	0, cr0, [r0], {5}
    2270:	92009200 	andls	r9, r0, #0, 4
    2274:	00006c00 	andeq	r6, r0, r0, lsl #24
    2278:	00000000 	andeq	r0, r0, r0
    227c:	05000000 	streq	r0, [r0, #-0]
    2280:	009c0000 	addseq	r0, ip, r0
    2284:	00920092 	umullseq	r0, r2, r2, r0
    2288:	0000007c 	andeq	r0, r0, ip, ror r0
    228c:	00000000 	andeq	r0, r0, r0
    2290:	00020000 	andeq	r0, r2, r0
    2294:	00008800 	andeq	r8, r0, r0, lsl #16
	...
    22a4:	01000200 	mrseq	r0, R8_usr
    22a8:	000000c8 	andeq	r0, r0, r8, asr #1
	...
    22b8:	10001005 	andne	r1, r0, r5
    22bc:	28002800 	stmdacs	r0, {fp, sp}
    22c0:	00004400 	andeq	r4, r0, r0, lsl #8
    22c4:	00000000 	andeq	r0, r0, r0
    22c8:	05000000 	streq	r0, [r0, #-0]
    22cc:	00280000 	eoreq	r0, r8, r0
    22d0:	00280028 	eoreq	r0, r8, r8, lsr #32
    22d4:	00000028 	andeq	r0, r0, r8, lsr #32
    22d8:	00000000 	andeq	r0, r0, r0
    22dc:	00050000 	andeq	r0, r5, r0
    22e0:	28004400 	stmdacs	r0, {sl, lr}
    22e4:	10002800 	andne	r2, r0, r0, lsl #16
	...
    22f0:	00000500 	andeq	r0, r0, r0, lsl #10
    22f4:	00b20002 	adcseq	r0, r2, r2
    22f8:	000c0012 	andeq	r0, ip, r2, lsl r0
	...
    2304:	f8000009 			; <UNDEFINED> instruction: 0xf8000009
    2308:	72018400 	andvc	r8, r1, #0, 8
    230c:	4a014a01 	bmi	54b18 <_data_load+0x52344>
    2310:	42017a01 	andmi	r7, r1, #4096	; 0x1000
    2314:	06003c00 	streq	r3, [r0], -r0, lsl #24
    2318:	00f80000 	rscseq	r0, r8, r0
    231c:	00220024 	eoreq	r0, r2, r4, lsr #32
    2320:	00f80024 	rscseq	r0, r8, r4, lsr #32
    2324:	00000000 	andeq	r0, r0, r0
    2328:	00060000 	andeq	r0, r6, r0
    232c:	9200fe00 	andls	pc, r0, #0, 28
    2330:	92009200 	andls	r9, r0, #0, 4
    2334:	00006c00 	andeq	r6, r0, r0, lsl #24
    2338:	00000000 	andeq	r0, r0, r0
    233c:	00000600 	andeq	r0, r0, r0, lsl #12
    2340:	0082007c 	addeq	r0, r2, ip, ror r0
    2344:	00820082 	addeq	r0, r2, r2, lsl #1
    2348:	00000044 	andeq	r0, r0, r4, asr #32
    234c:	00000000 	andeq	r0, r0, r0
    2350:	fe000006 	cdp2	0, 0, cr0, cr0, cr6, {0}
    2354:	82008200 	andhi	r8, r0, #0, 4
    2358:	7c00c600 	stcvc	6, cr12, [r0], {-0}
    235c:	00000000 	andeq	r0, r0, r0
    2360:	05000000 	streq	r0, [r0, #-0]
    2364:	00fe0000 	rscseq	r0, lr, r0
    2368:	00920092 	umullseq	r0, r2, r2, r0
    236c:	00000092 	muleq	r0, r2, r0
    2370:	00000000 	andeq	r0, r0, r0
    2374:	00050000 	andeq	r0, r5, r0
    2378:	1200fe00 	andne	pc, r0, #0, 28
    237c:	12001200 	andne	r1, r0, #0, 4
	...
    2388:	00000600 	andeq	r0, r0, r0, lsl #12
    238c:	00c6007c 	sbceq	r0, r6, ip, ror r0
    2390:	00920082 	addseq	r0, r2, r2, lsl #1
    2394:	000000f6 	strdeq	r0, [r0], -r6
    2398:	00000000 	andeq	r0, r0, r0
    239c:	fe000006 	cdp2	0, 0, cr0, cr0, cr6, {0}
    23a0:	10001000 	andne	r1, r0, r0
    23a4:	fe001000 	cdp2	0, 0, cr1, cr0, cr0, {0}
    23a8:	00000000 	andeq	r0, r0, r0
    23ac:	02000000 	andeq	r0, r0, #0
    23b0:	00fe0000 	rscseq	r0, lr, r0
	...
    23c0:	00040000 	andeq	r0, r4, r0
    23c4:	80008000 	andhi	r8, r0, r0
    23c8:	00007e00 	andeq	r7, r0, r0, lsl #28
	...
    23d4:	00000500 	andeq	r0, r0, r0, lsl #10
    23d8:	001000fe 	ldrsheq	r0, [r0], -lr
    23dc:	00c2002c 	sbceq	r0, r2, ip, lsr #32
	...
    23e8:	fe000005 	cdp2	0, 0, cr0, cr0, cr5, {0}
    23ec:	80008000 	andhi	r8, r0, r0
    23f0:	00008000 	andeq	r8, r0, r0
    23f4:	00000000 	andeq	r0, r0, r0
    23f8:	08000000 	stmdaeq	r0, {}	; <UNPREDICTABLE>
    23fc:	00fe0000 	rscseq	r0, lr, r0
    2400:	00180006 	andseq	r0, r8, r6
    2404:	001800e0 	andseq	r0, r8, r0, ror #1
    2408:	00fe0006 	rscseq	r0, lr, r6
    240c:	00060000 	andeq	r0, r6, r0
    2410:	0600fe00 	streq	pc, [r0], -r0, lsl #28
    2414:	60001800 	andvs	r1, r0, r0, lsl #16
    2418:	0000fe00 	andeq	pc, r0, r0, lsl #28
    241c:	00000000 	andeq	r0, r0, r0
    2420:	00000600 	andeq	r0, r0, r0, lsl #12
    2424:	0082007c 	addeq	r0, r2, ip, ror r0
    2428:	00820082 	addeq	r0, r2, r2, lsl #1
    242c:	0000007c 	andeq	r0, r0, ip, ror r0
    2430:	00000000 	andeq	r0, r0, r0
    2434:	fe000005 	cdp2	0, 0, cr0, cr0, cr5, {0}
    2438:	12001200 	andne	r1, r0, #0, 4
    243c:	00000c00 	andeq	r0, r0, r0, lsl #24
    2440:	00000000 	andeq	r0, r0, r0
    2444:	07000000 	streq	r0, [r0, -r0]
    2448:	007c0000 	rsbseq	r0, ip, r0
    244c:	00820082 	addeq	r0, r2, r2, lsl #1
    2450:	00fc00c2 	rscseq	r0, ip, r2, asr #1
    2454:	00000100 	andeq	r0, r0, r0, lsl #2
    2458:	00050000 	andeq	r0, r5, r0
    245c:	1200fe00 	andne	pc, r0, #0, 28
    2460:	ec001200 	sfm	f1, 4, [r0], {-0}
	...
    246c:	00000500 	andeq	r0, r0, r0, lsl #10
    2470:	009200cc 	addseq	r0, r2, ip, asr #1
    2474:	00660092 	mlseq	r6, r2, r0, r0
	...
    2480:	02000006 	andeq	r0, r0, #6
    2484:	fe000200 	cdp2	2, 0, cr0, cr0, cr0, {0}
    2488:	02000200 	andeq	r0, r0, #0, 4
    248c:	00000000 	andeq	r0, r0, r0
    2490:	06000000 	streq	r0, [r0], -r0
    2494:	007e0000 	rsbseq	r0, lr, r0
    2498:	00800080 	addeq	r0, r0, r0, lsl #1
    249c:	007e0080 	rsbseq	r0, lr, r0, lsl #1
    24a0:	00000000 	andeq	r0, r0, r0
    24a4:	00070000 	andeq	r0, r7, r0
    24a8:	3c000600 	stccc	6, cr0, [r0], {-0}
    24ac:	e000e000 	and	lr, r0, r0
    24b0:	06001c00 	streq	r1, [r0], -r0, lsl #24
    24b4:	00000000 	andeq	r0, r0, r0
    24b8:	00000600 	andeq	r0, r0, r0, lsl #12
    24bc:	00e0001e 	rsceq	r0, r0, lr, lsl r0
    24c0:	00e0003e 	rsceq	r0, r0, lr, lsr r0
    24c4:	0000001e 	andeq	r0, r0, lr, lsl r0
    24c8:	00000000 	andeq	r0, r0, r0
    24cc:	82000006 	andhi	r0, r0, #6
    24d0:	38006400 	stmdacc	r0, {sl, sp, lr}
    24d4:	82006c00 	andhi	r6, r0, #0, 24
    24d8:	00000000 	andeq	r0, r0, r0
    24dc:	06000000 	streq	r0, [r0], -r0
    24e0:	00020000 	andeq	r0, r2, r0
    24e4:	00f0000c 	rscseq	r0, r0, ip
    24e8:	0002000c 	andeq	r0, r2, ip
    24ec:	00000000 	andeq	r0, r0, r0
    24f0:	00060000 	andeq	r0, r6, r0
    24f4:	e2008200 	and	r8, r0, #0, 4
    24f8:	8e009200 	cdphi	2, 0, cr9, cr0, cr0, {0}
    24fc:	00008200 	andeq	r8, r0, r0, lsl #4
    2500:	00000000 	andeq	r0, r0, r0
    2504:	00000300 	andeq	r0, r0, r0, lsl #6
    2508:	010101ff 	strdeq	r0, [r1, -pc]
	...
    2518:	0e000104 	adfeqs	f0, f0, f4
    251c:	80007000 	andhi	r7, r0, r0
    2520:	00000001 	andeq	r0, r0, r1
    2524:	00000000 	andeq	r0, r0, r0
    2528:	02000000 	andeq	r0, r0, #0
    252c:	01ff0101 	mvnseq	r0, r1, lsl #2
	...
    253c:	00040000 	andeq	r0, r4, r0
    2540:	0c001800 	stceq	8, cr1, [r0], {-0}
    2544:	00001800 	andeq	r1, r0, r0, lsl #16
	...
    2550:	01000600 	tsteq	r0, r0, lsl #12
    2554:	01000100 	mrseq	r0, (UNDEF: 16)
    2558:	01000100 	mrseq	r0, (UNDEF: 16)
    255c:	00000100 	andeq	r0, r0, r0, lsl #2
    2560:	00000000 	andeq	r0, r0, r0
    2564:	01000003 	tsteq	r0, r3
    2568:	00000200 	andeq	r0, r0, r0, lsl #4
	...
    2574:	05000000 	streq	r0, [r0, #-0]
    2578:	00e80000 	rsceq	r0, r8, r0
    257c:	00a800a8 	adceq	r0, r8, r8, lsr #1
    2580:	000000f8 	strdeq	r0, [r0], -r8
    2584:	00000000 	andeq	r0, r0, r0
    2588:	00050000 	andeq	r0, r5, r0
    258c:	8800fe00 	stmdahi	r0, {r9, sl, fp, ip, sp, lr, pc}
    2590:	70008800 	andvc	r8, r0, r0, lsl #16
	...
    259c:	00000500 	andeq	r0, r0, r0, lsl #10
    25a0:	00880070 	addeq	r0, r8, r0, ror r0
    25a4:	00880088 	addeq	r0, r8, r8, lsl #1
	...
    25b0:	70000005 	andvc	r0, r0, r5
    25b4:	88008800 	stmdahi	r0, {fp, pc}
    25b8:	0000fe00 	andeq	pc, r0, r0, lsl #28
    25bc:	00000000 	andeq	r0, r0, r0
    25c0:	05000000 	streq	r0, [r0, #-0]
    25c4:	00700000 	rsbseq	r0, r0, r0
    25c8:	00a800a8 	adceq	r0, r8, r8, lsr #1
    25cc:	000000b0 	strheq	r0, [r0], -r0	; <UNPREDICTABLE>
    25d0:	00000000 	andeq	r0, r0, r0
    25d4:	08040000 	stmdaeq	r4, {}	; <UNPREDICTABLE>
    25d8:	0a00fe00 	beq	41de0 <_data_load+0x3f60c>
    25dc:	00000200 	andeq	r0, r0, r0, lsl #4
	...
    25e8:	00000500 	andeq	r0, r0, r0, lsl #10
    25ec:	01480030 	cmpeq	r8, r0, lsr r0
    25f0:	01f80148 	mvnseq	r0, r8, asr #2
	...
    25fc:	fe000005 	cdp2	0, 0, cr0, cr0, cr5, {0}
    2600:	08000800 	stmdaeq	r0, {fp}
    2604:	0000f800 	andeq	pc, r0, r0, lsl #16
    2608:	00000000 	andeq	r0, r0, r0
    260c:	02000000 	andeq	r0, r0, #0
    2610:	00fa0000 	rscseq	r0, sl, r0
	...
    2620:	00020000 	andeq	r0, r2, r0
    2624:	0001fa01 	andeq	pc, r1, r1, lsl #20
	...
    2634:	00000500 	andeq	r0, r0, r0, lsl #10
    2638:	002000fe 	strdeq	r0, [r0], -lr	; <UNPREDICTABLE>
    263c:	00880050 	addeq	r0, r8, r0, asr r0
	...
    2648:	fe000002 	cdp2	0, 0, cr0, cr0, cr2, {0}
	...
    2658:	06000000 	streq	r0, [r0], -r0
    265c:	00f80000 	rscseq	r0, r8, r0
    2660:	00f80008 	rscseq	r0, r8, r8
    2664:	00f80008 	rscseq	r0, r8, r8
    2668:	00000000 	andeq	r0, r0, r0
    266c:	00050000 	andeq	r0, r5, r0
    2670:	0800f800 	stmdaeq	r0, {fp, ip, sp, lr, pc}
    2674:	f8000800 			; <UNDEFINED> instruction: 0xf8000800
	...
    2680:	00000500 	andeq	r0, r0, r0, lsl #10
    2684:	00880070 	addeq	r0, r8, r0, ror r0
    2688:	00700088 	rsbseq	r0, r0, r8, lsl #1
	...
    2694:	f8000005 			; <UNDEFINED> instruction: 0xf8000005
    2698:	48004801 	stmdami	r0, {r0, fp, lr}
    269c:	00003000 	andeq	r3, r0, r0
    26a0:	00000000 	andeq	r0, r0, r0
    26a4:	05000000 	streq	r0, [r0, #-0]
    26a8:	00300000 	eorseq	r0, r0, r0
    26ac:	00480048 	subeq	r0, r8, r8, asr #32
    26b0:	000001f8 	strdeq	r0, [r0], -r8
    26b4:	00000000 	andeq	r0, r0, r0
    26b8:	00040000 	andeq	r0, r4, r0
    26bc:	0800f800 	stmdaeq	r0, {fp, ip, sp, lr, pc}
    26c0:	00000800 	andeq	r0, r0, r0, lsl #16
	...
    26cc:	00000400 	andeq	r0, r0, r0, lsl #8
    26d0:	00a80098 	umlaleq	r0, r8, r8, r0
    26d4:	000000e8 	andeq	r0, r0, r8, ror #1
	...
    26e0:	08000004 	stmdaeq	r0, {r2}
    26e4:	8800fc00 	stmdahi	r0, {sl, fp, ip, sp, lr, pc}
	...
    26f0:	05000000 	streq	r0, [r0, #-0]
    26f4:	00780000 	rsbseq	r0, r8, r0
    26f8:	00800080 	addeq	r0, r0, r0, lsl #1
    26fc:	000000f8 	strdeq	r0, [r0], -r8
    2700:	00000000 	andeq	r0, r0, r0
    2704:	00040000 	andeq	r0, r4, r0
    2708:	c0003800 	andgt	r3, r0, r0, lsl #16
    270c:	00003800 	andeq	r3, r0, r0, lsl #16
	...
    2718:	00000600 	andeq	r0, r0, r0, lsl #12
    271c:	00c00078 	sbceq	r0, r0, r8, ror r0
    2720:	00c00038 	sbceq	r0, r0, r8, lsr r0
    2724:	00000078 	andeq	r0, r0, r8, ror r0
    2728:	00000000 	andeq	r0, r0, r0
    272c:	88000005 	stmdahi	r0, {r0, r2}
    2730:	70007000 	andvc	r7, r0, r0
    2734:	00008800 	andeq	r8, r0, r0, lsl #16
    2738:	00000000 	andeq	r0, r0, r0
    273c:	05000000 	streq	r0, [r0, #-0]
    2740:	00380000 	eorseq	r0, r8, r0
    2744:	01400140 	cmpeq	r0, r0, asr #2
    2748:	000000f8 	strdeq	r0, [r0], -r8
    274c:	00000000 	andeq	r0, r0, r0
    2750:	00050000 	andeq	r0, r5, r0
    2754:	e800c800 	stmda	r0, {fp, lr, pc}
    2758:	8800b800 	stmdahi	r0, {fp, ip, sp, pc}
	...
    2764:	00100400 	andseq	r0, r0, r0, lsl #8
    2768:	01ef0038 	mvneq	r0, r8, lsr r0
    276c:	00000101 	andeq	r0, r0, r1, lsl #2
	...
    2778:	00000003 	andeq	r0, r0, r3
    277c:	0001ff00 	andeq	pc, r1, r0, lsl #30
	...
    2788:	04000000 	streq	r0, [r0], #-0
    278c:	01c70101 	biceq	r0, r7, r1, lsl #2
    2790:	00100038 	andseq	r0, r0, r8, lsr r0
	...
    279c:	0c050000 	stceq	0, cr0, [r5], {-0}
    27a0:	0c000400 	cfstrseq	mvf0, [r0], {-0}
    27a4:	0c000800 	stceq	8, cr0, [r0], {-0}
	...
    27b0:	01fe0300 	mvnseq	r0, r0, lsl #6
    27b4:	01fe0102 	mvnseq	r0, r2, lsl #2
	...

000027c4 <.Lswitch.table>:
    27c4:	2009c000 	andcs	ip, r9, r0
    27c8:	2009c020 	andcs	ip, r9, r0, lsr #32
    27cc:	2009c040 	andcs	ip, r9, r0, asr #32
    27d0:	2009c060 	andcs	ip, r9, r0, rrx

Disassembly of section .bss:

10000034 <_bss>:
10000034:	00000000 	andeq	r0, r0, r0

10000038 <__STACK_LIMIT>:
10000038:	00000000 	andeq	r0, r0, r0

Disassembly of section .ARM.attributes:

00000000 <.ARM.attributes>:
   0:	00002841 	andeq	r2, r0, r1, asr #16
   4:	61656100 	cmnvs	r5, r0, lsl #2
   8:	01006962 	tsteq	r0, r2, ror #18
   c:	0000001e 	andeq	r0, r0, lr, lsl r0
  10:	524f4305 	subpl	r4, pc, #335544320	; 0x14000000
  14:	2d584554 	cfldr64cs	mvdx4, [r8, #-336]	; 0xfffffeb0
  18:	0600334d 	streq	r3, [r0], -sp, asr #6
  1c:	094d070a 	stmdbeq	sp, {r1, r3, r8, r9, sl}^
  20:	15011402 	strne	r1, [r1, #-1026]	; 0x402
  24:	18031701 	stmdane	r3, {r0, r8, r9, sl, ip}
  28:	Address 0x0000000000000028 is out of bounds.

