
/home/travis/build/hackndev/zinc/build/app_blink.elf:     file format elf32-littlearm


Disassembly of section .data:

10000000 <_data>:
	...

Disassembly of section .text:

00000000 <ISRVectors>:
   0:	10002000 	andne	r2, r0, r0
   4:	000000cd 	andeq	r0, r0, sp, asr #1
   8:	0000035d 	andeq	r0, r0, sp, asr r3
   c:	0000035d 	andeq	r0, r0, sp, asr r3
  10:	0000035d 	andeq	r0, r0, sp, asr r3
  14:	0000035d 	andeq	r0, r0, sp, asr r3
  18:	0000035d 	andeq	r0, r0, sp, asr r3
  1c:	efffd879 	svc	0x00ffd879
	...
  2c:	000003c9 	andeq	r0, r0, r9, asr #7
	...
  38:	000003a1 	andeq	r0, r0, r1, lsr #7
  3c:	00000379 	andeq	r0, r0, r9, ror r3

00000040 <NVICVectors>:
  40:	0000035d 	andeq	r0, r0, sp, asr r3
  44:	0000035d 	andeq	r0, r0, sp, asr r3
  48:	0000035d 	andeq	r0, r0, sp, asr r3
  4c:	0000035d 	andeq	r0, r0, sp, asr r3
  50:	0000035d 	andeq	r0, r0, sp, asr r3
  54:	0000035d 	andeq	r0, r0, sp, asr r3
  58:	0000035d 	andeq	r0, r0, sp, asr r3
  5c:	0000035d 	andeq	r0, r0, sp, asr r3
  60:	0000035d 	andeq	r0, r0, sp, asr r3
  64:	0000035d 	andeq	r0, r0, sp, asr r3
  68:	0000035d 	andeq	r0, r0, sp, asr r3
  6c:	0000035d 	andeq	r0, r0, sp, asr r3
  70:	0000035d 	andeq	r0, r0, sp, asr r3
  74:	0000035d 	andeq	r0, r0, sp, asr r3
  78:	0000035d 	andeq	r0, r0, sp, asr r3
  7c:	0000035d 	andeq	r0, r0, sp, asr r3
  80:	0000035d 	andeq	r0, r0, sp, asr r3
  84:	0000035d 	andeq	r0, r0, sp, asr r3
  88:	0000035d 	andeq	r0, r0, sp, asr r3
  8c:	0000035d 	andeq	r0, r0, sp, asr r3
  90:	0000035d 	andeq	r0, r0, sp, asr r3
  94:	0000035d 	andeq	r0, r0, sp, asr r3
  98:	0000035d 	andeq	r0, r0, sp, asr r3
  9c:	0000035d 	andeq	r0, r0, sp, asr r3
  a0:	0000035d 	andeq	r0, r0, sp, asr r3
  a4:	0000035d 	andeq	r0, r0, sp, asr r3
  a8:	0000035d 	andeq	r0, r0, sp, asr r3
  ac:	0000035d 	andeq	r0, r0, sp, asr r3
  b0:	0000035d 	andeq	r0, r0, sp, asr r3
  b4:	0000035d 	andeq	r0, r0, sp, asr r3
  b8:	0000035d 	andeq	r0, r0, sp, asr r3
  bc:	0000035d 	andeq	r0, r0, sp, asr r3
  c0:	0000035d 	andeq	r0, r0, sp, asr r3
  c4:	0000035d 	andeq	r0, r0, sp, asr r3
  c8:	0000035d 	andeq	r0, r0, sp, asr r3

000000cc <main>:
  cc:	b510      	push	{r4, lr}
  ce:	f240 0038 	movw	r0, #56	; 0x38
  d2:	f240 013c 	movw	r1, #60	; 0x3c
  d6:	f2c1 0000 	movt	r0, #4096	; 0x1000
  da:	f2c1 0100 	movt	r1, #4096	; 0x1000
  de:	6001      	str	r1, [r0, #0]
  e0:	f240 0000 	movw	r0, #0
  e4:	f240 0134 	movw	r1, #52	; 0x34
  e8:	f2c1 0000 	movt	r0, #4096	; 0x1000
  ec:	f2c1 0100 	movt	r1, #4096	; 0x1000
  f0:	4288      	cmp	r0, r1
  f2:	d209      	bcs.n	108 <main+0x3c>
  f4:	f240 32dc 	movw	r2, #988	; 0x3dc
  f8:	f2c0 0200 	movt	r2, #0
  fc:	f852 3b04 	ldr.w	r3, [r2], #4
 100:	f840 3b04 	str.w	r3, [r0], #4
 104:	4288      	cmp	r0, r1
 106:	d3f9      	bcc.n	fc <main+0x30>
 108:	f240 0034 	movw	r0, #52	; 0x34
 10c:	f240 0134 	movw	r1, #52	; 0x34
 110:	f2c1 0000 	movt	r0, #4096	; 0x1000
 114:	f2c1 0100 	movt	r1, #4096	; 0x1000
 118:	4288      	cmp	r0, r1
 11a:	d204      	bcs.n	126 <main+0x5a>
 11c:	2200      	movs	r2, #0
 11e:	f840 2b04 	str.w	r2, [r0], #4
 122:	4288      	cmp	r0, r1
 124:	d3fb      	bcc.n	11e <main+0x52>
 126:	f24c 10a0 	movw	r0, #49568	; 0xc1a0
 12a:	2120      	movs	r1, #32
 12c:	f2c4 000f 	movt	r0, #16399	; 0x400f
 130:	6001      	str	r1, [r0, #0]
 132:	6801      	ldr	r1, [r0, #0]
 134:	f011 0f40 	tst.w	r1, #64	; 0x40
 138:	d0fb      	beq.n	132 <main+0x66>
 13a:	f24c 0000 	movw	r0, #49152	; 0xc000
 13e:	f44f 4180 	mov.w	r1, #16384	; 0x4000
 142:	2231      	movs	r2, #49	; 0x31
 144:	f24c 0c80 	movw	ip, #49280	; 0xc080
 148:	23aa      	movs	r3, #170	; 0xaa
 14a:	f2c4 000f 	movt	r0, #16399	; 0x400f
 14e:	f2c0 0202 	movt	r2, #2
 152:	f2c4 0c0f 	movt	ip, #16399	; 0x400f
 156:	6001      	str	r1, [r0, #0]
 158:	f24c 100c 	movw	r0, #49420	; 0xc10c
 15c:	2101      	movs	r1, #1
 15e:	f2c4 000f 	movt	r0, #16399	; 0x400f
 162:	6001      	str	r1, [r0, #0]
 164:	f24c 0084 	movw	r0, #49284	; 0xc084
 168:	f2c4 000f 	movt	r0, #16399	; 0x400f
 16c:	6002      	str	r2, [r0, #0]
 16e:	f24c 008c 	movw	r0, #49292	; 0xc08c
 172:	2255      	movs	r2, #85	; 0x55
 174:	f2c4 000f 	movt	r0, #16399	; 0x400f
 178:	6003      	str	r3, [r0, #0]
 17a:	6002      	str	r2, [r0, #0]
 17c:	f8cc 1000 	str.w	r1, [ip]
 180:	f24c 0188 	movw	r1, #49288	; 0xc088
 184:	6003      	str	r3, [r0, #0]
 186:	6002      	str	r2, [r0, #0]
 188:	f2c4 010f 	movt	r1, #16399	; 0x400f
 18c:	680a      	ldr	r2, [r1, #0]
 18e:	f012 7f80 	tst.w	r2, #16777216	; 0x1000000
 192:	d0fb      	beq.n	18c <main+0xc0>
 194:	f24c 1204 	movw	r2, #49412	; 0xc104
 198:	2303      	movs	r3, #3
 19a:	f2c4 020f 	movt	r2, #16399	; 0x400f
 19e:	6013      	str	r3, [r2, #0]
 1a0:	680a      	ldr	r2, [r1, #0]
 1a2:	f012 6f80 	tst.w	r2, #67108864	; 0x4000000
 1a6:	d0fb      	beq.n	1a0 <main+0xd4>
 1a8:	2203      	movs	r2, #3
 1aa:	f8cc 2000 	str.w	r2, [ip]
 1ae:	22aa      	movs	r2, #170	; 0xaa
 1b0:	6002      	str	r2, [r0, #0]
 1b2:	2255      	movs	r2, #85	; 0x55
 1b4:	6002      	str	r2, [r0, #0]
 1b6:	6808      	ldr	r0, [r1, #0]
 1b8:	f010 7f00 	tst.w	r0, #33554432	; 0x2000000
 1bc:	d0fb      	beq.n	1b6 <main+0xea>
 1be:	f24c 0020 	movw	r0, #49184	; 0xc020
 1c2:	f44f 2c80 	mov.w	ip, #262144	; 0x40000
 1c6:	f44f 1e80 	mov.w	lr, #1048576	; 0x100000
 1ca:	f2c2 0009 	movt	r0, #8201	; 0x2009
 1ce:	6801      	ldr	r1, [r0, #0]
 1d0:	f441 2180 	orr.w	r1, r1, #262144	; 0x40000
 1d4:	6001      	str	r1, [r0, #0]
 1d6:	6801      	ldr	r1, [r0, #0]
 1d8:	f441 1180 	orr.w	r1, r1, #1048576	; 0x100000
 1dc:	6001      	str	r1, [r0, #0]
 1de:	f24c 01c4 	movw	r1, #49348	; 0xc0c4
 1e2:	f2c4 010f 	movt	r1, #16399	; 0x400f
 1e6:	680a      	ldr	r2, [r1, #0]
 1e8:	f042 0204 	orr.w	r2, r2, #4
 1ec:	600a      	str	r2, [r1, #0]
 1ee:	f24c 11a8 	movw	r1, #49576	; 0xc1a8
 1f2:	f2c4 010f 	movt	r1, #16399	; 0x400f
 1f6:	680a      	ldr	r2, [r1, #0]
 1f8:	f022 020c 	bic.w	r2, r2, #12
 1fc:	600a      	str	r2, [r1, #0]
 1fe:	f248 0100 	movw	r1, #32768	; 0x8000
 202:	2200      	movs	r2, #0
 204:	f2c4 0100 	movt	r1, #16384	; 0x4000
 208:	638a      	str	r2, [r1, #56]	; 0x38
 20a:	2202      	movs	r2, #2
 20c:	604a      	str	r2, [r1, #4]
 20e:	2218      	movs	r2, #24
 210:	60ca      	str	r2, [r1, #12]
 212:	2201      	movs	r2, #1
 214:	604a      	str	r2, [r1, #4]
 216:	f244 2240 	movw	r2, #16960	; 0x4240
 21a:	f2c0 020f 	movt	r2, #15
 21e:	f8c0 c018 	str.w	ip, [r0, #24]
 222:	f8c0 e01c 	str.w	lr, [r0, #28]
 226:	688b      	ldr	r3, [r1, #8]
 228:	688c      	ldr	r4, [r1, #8]
 22a:	1ae4      	subs	r4, r4, r3
 22c:	4294      	cmp	r4, r2
 22e:	d3fb      	bcc.n	228 <main+0x15c>
 230:	f8c0 c01c 	str.w	ip, [r0, #28]
 234:	f8c0 e018 	str.w	lr, [r0, #24]
 238:	688b      	ldr	r3, [r1, #8]
 23a:	688c      	ldr	r4, [r1, #8]
 23c:	1ae4      	subs	r4, r4, r3
 23e:	4294      	cmp	r4, r2
 240:	d3fb      	bcc.n	23a <main+0x16e>
 242:	e7ec      	b.n	21e <main+0x152>

00000244 <__morestack>:
 244:	4668      	mov	r0, sp
 246:	f3ef 8109 	mrs	r1, PSP
 24a:	4281      	cmp	r1, r0
 24c:	bf01      	itttt	eq
 24e:	f240 20f1 	movweq	r0, #753	; 0x2f1
 252:	f2c0 0000 	movteq	r0, #0
 256:	2100      	moveq	r1, #0
 258:	f000 b8be 	beq.w	3d8 <syscall>
 25c:	0000defe 	strdeq	sp, [r0], -lr

00000260 <task_scheduler>:
 260:	e92d 4800 	stmdb	sp!, {fp, lr}
 264:	b082      	sub	sp, #8
 266:	f240 0e00 	movw	lr, #0
 26a:	f242 0000 	movw	r0, #8192	; 0x2000
 26e:	f240 0c38 	movw	ip, #56	; 0x38
 272:	f2c1 0e00 	movt	lr, #4096	; 0x1000
 276:	f2c1 0000 	movt	r0, #4096	; 0x1000
 27a:	f2c1 0c00 	movt	ip, #4096	; 0x1000
 27e:	f8de 2000 	ldr.w	r2, [lr]
 282:	f5a0 7080 	sub.w	r0, r0, #256	; 0x100
 286:	f8cc 0000 	str.w	r0, [ip]
 28a:	2a04      	cmp	r2, #4
 28c:	d22a      	bcs.n	2e4 <task_scheduler+0x84>
 28e:	eb02 0042 	add.w	r0, r2, r2, lsl #1
 292:	f3ef 8109 	mrs	r1, PSP
 296:	eb0e 0080 	add.w	r0, lr, r0, lsl #2
 29a:	6041      	str	r1, [r0, #4]
 29c:	f8de 0000 	ldr.w	r0, [lr]
 2a0:	eb00 0140 	add.w	r1, r0, r0, lsl #1
 2a4:	1c42      	adds	r2, r0, #1
 2a6:	eb0e 0181 	add.w	r1, lr, r1, lsl #2
 2aa:	f101 0318 	add.w	r3, r1, #24
 2ae:	f8ce 2000 	str.w	r2, [lr]
 2b2:	2a04      	cmp	r2, #4
 2b4:	d216      	bcs.n	2e4 <task_scheduler+0x84>
 2b6:	f853 1c04 	ldr.w	r1, [r3, #-4]
 2ba:	f103 000c 	add.w	r0, r3, #12
 2be:	781b      	ldrb	r3, [r3, #0]
 2c0:	3201      	adds	r2, #1
 2c2:	2b00      	cmp	r3, #0
 2c4:	4603      	mov	r3, r0
 2c6:	d1f2      	bne.n	2ae <task_scheduler+0x4e>
 2c8:	4603      	mov	r3, r0
 2ca:	2900      	cmp	r1, #0
 2cc:	d0ef      	beq.n	2ae <task_scheduler+0x4e>
 2ce:	f850 1c14 	ldr.w	r1, [r0, #-20]
 2d2:	f850 0c10 	ldr.w	r0, [r0, #-16]
 2d6:	f381 8809 	msr	PSP, r1
 2da:	f8cc 0000 	str.w	r0, [ip]
 2de:	b002      	add	sp, #8
 2e0:	e8bd 8800 	ldmia.w	sp!, {fp, pc}
 2e4:	4668      	mov	r0, sp
 2e6:	2164      	movs	r1, #100	; 0x64
 2e8:	2304      	movs	r3, #4
 2ea:	f000 f823 	bl	334 <_ZN7failure17fail_bounds_check20hd02eb70fa0b2c11cuUv11v0.11.0.preE>
	...

000002f0 <kill_current_task>:
 2f0:	e92d 4800 	stmdb	sp!, {fp, lr}
 2f4:	b082      	sub	sp, #8
 2f6:	f240 0000 	movw	r0, #0
 2fa:	f2c1 0000 	movt	r0, #4096	; 0x1000
 2fe:	6802      	ldr	r2, [r0, #0]
 300:	2a04      	cmp	r2, #4
 302:	bf3f      	itttt	cc
 304:	eb02 0142 	addcc.w	r1, r2, r2, lsl #1
 308:	eb00 0081 	addcc.w	r0, r0, r1, lsl #2
 30c:	2100      	movcc	r1, #0
 30e:	6081      	strcc	r1, [r0, #8]
 310:	bf3f      	itttt	cc
 312:	f64e 5000 	movwcc	r0, #60672	; 0xed00
 316:	f2ce 0000 	movtcc	r0, #57344	; 0xe000
 31a:	f04f 5180 	movcc.w	r1, #268435456	; 0x10000000
 31e:	6041      	strcc	r1, [r0, #4]
 320:	bf3c      	itt	cc
 322:	b002      	addcc	sp, #8
 324:	e8bd 8800 	ldmiacc.w	sp!, {fp, pc}
 328:	4668      	mov	r0, sp
 32a:	2164      	movs	r1, #100	; 0x64
 32c:	2304      	movs	r3, #4
 32e:	f000 f801 	bl	334 <_ZN7failure17fail_bounds_check20hd02eb70fa0b2c11cuUv11v0.11.0.preE>
	...

00000334 <_ZN7failure17fail_bounds_check20hd02eb70fa0b2c11cuUv11v0.11.0.preE>:
 334:	b430      	push	{r4, r5}
 336:	ee1d 4f70 	mrc	15, 0, r4, cr13, cr0, {3}
 33a:	466d      	mov	r5, sp
 33c:	e594      	b.n	fffffe68 <_boot_checksum+0x100025ef>
 33e:	4004      	ands	r4, r0
 340:	42ac      	cmp	r4, r5
 342:	d308      	bcc.n	356 <_ZN7failure17fail_bounds_check20hd02eb70fa0b2c11cuUv11v0.11.0.preE+0x22>
 344:	2400      	movs	r4, #0
 346:	2500      	movs	r5, #0
 348:	b500      	push	{lr}
 34a:	f7ff ff7b 	bl	244 <__morestack>
 34e:	f85d eb04 	ldr.w	lr, [sp], #4
 352:	bc30      	pop	{r4, r5}
 354:	4770      	bx	lr
 356:	bc30      	pop	{r4, r5}
 358:	bf00      	nop
	...

0000035c <isr_adc>:
 35c:	f3ef 8009 	mrs	r0, PSP
 360:	f3ef 8108 	mrs	r1, MSP
 364:	6982      	ldr	r2, [r0, #24]
 366:	698b      	ldr	r3, [r1, #24]
 368:	be00      	bkpt	0x0000
 36a:	4770      	bx	lr

0000036c <abort>:
 36c:	be00      	bkpt	0x0000
 36e:	e7fe      	b.n	36e <abort+0x2>

00000370 <__aeabi_unwind_cpp_pr0>:
 370:	e92d 4800 	stmdb	sp!, {fp, lr}
 374:	f7ff fffa 	bl	36c <abort>

00000378 <isr_systick>:
 378:	f3ef 8009 	mrs	r0, PSP
 37c:	e920 0ff0 	stmdb	r0!, {r4, r5, r6, r7, r8, r9, sl, fp}
 380:	f380 8809 	msr	PSP, r0
 384:	f7ff ff6c 	bl	260 <task_scheduler>
 388:	f3ef 8009 	mrs	r0, PSP
 38c:	e8b0 0ff0 	ldmia.w	r0!, {r4, r5, r6, r7, r8, r9, sl, fp}
 390:	f380 8809 	msr	PSP, r0
 394:	f8df e004 	ldr.w	lr, [pc, #4]	; 39c <isr_systick+0x24>
 398:	4770      	bx	lr
 39a:	fffd0000 			; <UNDEFINED> instruction: 0xfffd0000
 39e:	f3efffff 			; <UNDEFINED> instruction: 0xf3efffff

000003a0 <isr_pendsv>:
 3a0:	f3ef 8009 	mrs	r0, PSP
 3a4:	e920 0ff0 	stmdb	r0!, {r4, r5, r6, r7, r8, r9, sl, fp}
 3a8:	f380 8809 	msr	PSP, r0
 3ac:	f7ff ff58 	bl	260 <task_scheduler>
 3b0:	f3ef 8009 	mrs	r0, PSP
 3b4:	e8b0 0ff0 	ldmia.w	r0!, {r4, r5, r6, r7, r8, r9, sl, fp}
 3b8:	f380 8809 	msr	PSP, r0
 3bc:	f8df e004 	ldr.w	lr, [pc, #4]	; 3c4 <isr_pendsv+0x24>
 3c0:	4770      	bx	lr
 3c2:	fffd0000 			; <UNDEFINED> instruction: 0xfffd0000
 3c6:	f3efffff 			; <UNDEFINED> instruction: 0xf3efffff

000003c8 <isr_svcall>:
 3c8:	f3ef 8209 	mrs	r2, PSP
 3cc:	6811      	ldr	r1, [r2, #0]
 3ce:	6850      	ldr	r0, [r2, #4]
 3d0:	b500      	push	{lr}
 3d2:	4788      	blx	r1
 3d4:	bd00      	pop	{pc}
 3d6:	bf00      	nop

000003d8 <syscall>:
 3d8:	df00      	svc	0
 3da:	4770      	bx	lr

Disassembly of section .bss:

10000034 <_bss>:
10000034:	00000000 	andeq	r0, r0, r0

10000038 <__STACK_LIMIT>:
10000038:	00000000 	andeq	r0, r0, r0

Disassembly of section .ARM.attributes:

00000000 <.ARM.attributes>:
   0:	00002841 	andeq	r2, r0, r1, asr #16
   4:	61656100 	cmnvs	r5, r0, lsl #2
   8:	01006962 	tsteq	r0, r2, ror #18
   c:	0000001e 	andeq	r0, r0, lr, lsl r0
  10:	524f4305 	subpl	r4, pc, #335544320	; 0x14000000
  14:	2d584554 	cfldr64cs	mvdx4, [r8, #-336]	; 0xfffffeb0
  18:	0600334d 	streq	r3, [r0], -sp, asr #6
  1c:	094d070a 	stmdbeq	sp, {r1, r3, r8, r9, sl}^
  20:	15011402 	strne	r1, [r1, #-1026]	; 0x402
  24:	18031701 	stmdane	r3, {r0, r8, r9, sl, ip}
  28:	Address 0x0000000000000028 is out of bounds.

