
/home/travis/build/hackndev/zinc/build/app_empty.elf:     file format elf32-littlearm


Disassembly of section .text:

00000000 <ISRVectors>:
   0:	10002000 	andne	r2, r0, r0
   4:	000000cd 	andeq	r0, r0, sp, asr #1
   8:	000001c1 	andeq	r0, r0, r1, asr #3
   c:	000001c1 	andeq	r0, r0, r1, asr #3
  10:	000001c1 	andeq	r0, r0, r1, asr #3
  14:	000001c1 	andeq	r0, r0, r1, asr #3
  18:	000001c1 	andeq	r0, r0, r1, asr #3
  1c:	efffdbb1 	svc	0x00ffdbb1
	...
  2c:	000001c1 	andeq	r0, r0, r1, asr #3
	...
  38:	000001c1 	andeq	r0, r0, r1, asr #3
  3c:	000001c1 	andeq	r0, r0, r1, asr #3

00000040 <NVICVectors>:
  40:	000001c1 	andeq	r0, r0, r1, asr #3
  44:	000001c1 	andeq	r0, r0, r1, asr #3
  48:	000001c1 	andeq	r0, r0, r1, asr #3
  4c:	000001c1 	andeq	r0, r0, r1, asr #3
  50:	000001c1 	andeq	r0, r0, r1, asr #3
  54:	000001c1 	andeq	r0, r0, r1, asr #3
  58:	000001c1 	andeq	r0, r0, r1, asr #3
  5c:	000001c1 	andeq	r0, r0, r1, asr #3
  60:	000001c1 	andeq	r0, r0, r1, asr #3
  64:	000001c1 	andeq	r0, r0, r1, asr #3
  68:	000001c1 	andeq	r0, r0, r1, asr #3
  6c:	000001c1 	andeq	r0, r0, r1, asr #3
  70:	000001c1 	andeq	r0, r0, r1, asr #3
  74:	000001c1 	andeq	r0, r0, r1, asr #3
  78:	000001c1 	andeq	r0, r0, r1, asr #3
  7c:	000001c1 	andeq	r0, r0, r1, asr #3
  80:	000001c1 	andeq	r0, r0, r1, asr #3
  84:	000001c1 	andeq	r0, r0, r1, asr #3
  88:	000001c1 	andeq	r0, r0, r1, asr #3
  8c:	000001c1 	andeq	r0, r0, r1, asr #3
  90:	000001c1 	andeq	r0, r0, r1, asr #3
  94:	000001c1 	andeq	r0, r0, r1, asr #3
  98:	000001c1 	andeq	r0, r0, r1, asr #3
  9c:	000001c1 	andeq	r0, r0, r1, asr #3
  a0:	000001c1 	andeq	r0, r0, r1, asr #3
  a4:	000001c1 	andeq	r0, r0, r1, asr #3
  a8:	000001c1 	andeq	r0, r0, r1, asr #3
  ac:	000001c1 	andeq	r0, r0, r1, asr #3
  b0:	000001c1 	andeq	r0, r0, r1, asr #3
  b4:	000001c1 	andeq	r0, r0, r1, asr #3
  b8:	000001c1 	andeq	r0, r0, r1, asr #3
  bc:	000001c1 	andeq	r0, r0, r1, asr #3
  c0:	000001c1 	andeq	r0, r0, r1, asr #3
  c4:	000001c1 	andeq	r0, r0, r1, asr #3
  c8:	000001c1 	andeq	r0, r0, r1, asr #3

000000cc <main>:
  cc:	f240 0004 	movw	r0, #4
  d0:	f240 0108 	movw	r1, #8
  d4:	f2c1 0000 	movt	r0, #4096	; 0x1000
  d8:	f2c1 0100 	movt	r1, #4096	; 0x1000
  dc:	6001      	str	r1, [r0, #0]
  de:	f240 0000 	movw	r0, #0
  e2:	f240 0100 	movw	r1, #0
  e6:	f2c1 0000 	movt	r0, #4096	; 0x1000
  ea:	f2c1 0100 	movt	r1, #4096	; 0x1000
  ee:	4288      	cmp	r0, r1
  f0:	d209      	bcs.n	106 <main+0x3a>
  f2:	f240 12dc 	movw	r2, #476	; 0x1dc
  f6:	f2c0 0200 	movt	r2, #0
  fa:	f852 3b04 	ldr.w	r3, [r2], #4
  fe:	f840 3b04 	str.w	r3, [r0], #4
 102:	4288      	cmp	r0, r1
 104:	d3f9      	bcc.n	fa <main+0x2e>
 106:	f240 0000 	movw	r0, #0
 10a:	f240 0100 	movw	r1, #0
 10e:	f2c1 0000 	movt	r0, #4096	; 0x1000
 112:	f2c1 0100 	movt	r1, #4096	; 0x1000
 116:	4288      	cmp	r0, r1
 118:	d204      	bcs.n	124 <main+0x58>
 11a:	2200      	movs	r2, #0
 11c:	f840 2b04 	str.w	r2, [r0], #4
 120:	4288      	cmp	r0, r1
 122:	d3fb      	bcc.n	11c <main+0x50>
 124:	f24c 10a0 	movw	r0, #49568	; 0xc1a0
 128:	2120      	movs	r1, #32
 12a:	f2c4 000f 	movt	r0, #16399	; 0x400f
 12e:	6001      	str	r1, [r0, #0]
 130:	6801      	ldr	r1, [r0, #0]
 132:	f011 0f40 	tst.w	r1, #64	; 0x40
 136:	d0fb      	beq.n	130 <main+0x64>
 138:	f24c 0000 	movw	r0, #49152	; 0xc000
 13c:	f44f 4180 	mov.w	r1, #16384	; 0x4000
 140:	2231      	movs	r2, #49	; 0x31
 142:	f24c 0c80 	movw	ip, #49280	; 0xc080
 146:	23aa      	movs	r3, #170	; 0xaa
 148:	f2c4 000f 	movt	r0, #16399	; 0x400f
 14c:	f2c0 0202 	movt	r2, #2
 150:	f2c4 0c0f 	movt	ip, #16399	; 0x400f
 154:	6001      	str	r1, [r0, #0]
 156:	f24c 100c 	movw	r0, #49420	; 0xc10c
 15a:	2101      	movs	r1, #1
 15c:	f2c4 000f 	movt	r0, #16399	; 0x400f
 160:	6001      	str	r1, [r0, #0]
 162:	f24c 0084 	movw	r0, #49284	; 0xc084
 166:	f2c4 000f 	movt	r0, #16399	; 0x400f
 16a:	6002      	str	r2, [r0, #0]
 16c:	f24c 008c 	movw	r0, #49292	; 0xc08c
 170:	2255      	movs	r2, #85	; 0x55
 172:	f2c4 000f 	movt	r0, #16399	; 0x400f
 176:	6003      	str	r3, [r0, #0]
 178:	6002      	str	r2, [r0, #0]
 17a:	f8cc 1000 	str.w	r1, [ip]
 17e:	f24c 0188 	movw	r1, #49288	; 0xc088
 182:	6003      	str	r3, [r0, #0]
 184:	6002      	str	r2, [r0, #0]
 186:	f2c4 010f 	movt	r1, #16399	; 0x400f
 18a:	680a      	ldr	r2, [r1, #0]
 18c:	f012 7f80 	tst.w	r2, #16777216	; 0x1000000
 190:	d0fb      	beq.n	18a <main+0xbe>
 192:	f24c 1204 	movw	r2, #49412	; 0xc104
 196:	2303      	movs	r3, #3
 198:	f2c4 020f 	movt	r2, #16399	; 0x400f
 19c:	6013      	str	r3, [r2, #0]
 19e:	680a      	ldr	r2, [r1, #0]
 1a0:	f012 6f80 	tst.w	r2, #67108864	; 0x4000000
 1a4:	d0fb      	beq.n	19e <main+0xd2>
 1a6:	2203      	movs	r2, #3
 1a8:	f8cc 2000 	str.w	r2, [ip]
 1ac:	22aa      	movs	r2, #170	; 0xaa
 1ae:	6002      	str	r2, [r0, #0]
 1b0:	2255      	movs	r2, #85	; 0x55
 1b2:	6002      	str	r2, [r0, #0]
 1b4:	6808      	ldr	r0, [r1, #0]
 1b6:	f010 7f00 	tst.w	r0, #33554432	; 0x2000000
 1ba:	d0fb      	beq.n	1b4 <main+0xe8>
 1bc:	bf00      	nop
 1be:	e7fe      	b.n	1be <main+0xf2>

000001c0 <isr_adc>:
 1c0:	f3ef 8009 	mrs	r0, PSP
 1c4:	f3ef 8108 	mrs	r1, MSP
 1c8:	6982      	ldr	r2, [r0, #24]
 1ca:	698b      	ldr	r3, [r1, #24]
 1cc:	be00      	bkpt	0x0000
 1ce:	4770      	bx	lr

000001d0 <abort>:
 1d0:	be00      	bkpt	0x0000
 1d2:	e7fe      	b.n	1d2 <abort+0x2>

000001d4 <__aeabi_unwind_cpp_pr0>:
 1d4:	e92d 4800 	stmdb	sp!, {fp, lr}
 1d8:	f7ff fffa 	bl	1d0 <abort>

Disassembly of section .bss:

10000000 <_bss>:
10000000:	00000000 	andeq	r0, r0, r0

10000004 <__STACK_LIMIT>:
10000004:	00000000 	andeq	r0, r0, r0

Disassembly of section .ARM.attributes:

00000000 <.ARM.attributes>:
   0:	00002c41 	andeq	r2, r0, r1, asr #24
   4:	61656100 	cmnvs	r5, r0, lsl #2
   8:	01006962 	tsteq	r0, r2, ror #18
   c:	00000022 	andeq	r0, r0, r2, lsr #32
  10:	524f4305 	subpl	r4, pc, #335544320	; 0x14000000
  14:	2d584554 	cfldr64cs	mvdx4, [r8, #-336]	; 0xfffffeb0
  18:	0600334d 	streq	r3, [r0], -sp, asr #6
  1c:	094d070a 	stmdbeq	sp, {r1, r3, r8, r9, sl}^
  20:	14011102 	strne	r1, [r1], #-258	; 0x102
  24:	17011501 	strne	r1, [r1, -r1, lsl #10]
  28:	19011803 	stmdbne	r1, {r0, r1, fp, ip}
  2c:	Address 0x000000000000002c is out of bounds.

